(dp1
(S'Maryland'
p2
S'VCU'
p3
tp4
cnumpy.core.multiarray
_reconstruct
p5
(cnumpy
ndarray
p6
(I0
tS'b'
tRp7
(I1
(tcnumpy
dtype
p8
(S'f4'
I0
I1
tRp9
(I3
S'<'
NNNI-1
I-1
I0
tbI00
S'\xa3\x02O\xc1'
tbs(S'Texas Tech'
p10
S'Gonzaga'
p11
tp12
g5
(g6
(I0
tS'b'
tRp13
(I1
(tg9
I00
S'9\x7f\x90\xc1'
tbs(S'Green Bay'
p14
S'Wisconsin'
p15
tp16
g5
(g6
(I0
tS'b'
tRp17
(I1
(tg9
I00
S'\x1d\xb5\x00A'
tbs(S'Iowa'
p18
S'Weber St.'
p19
tp20
g5
(g6
(I0
tS'b'
tRp21
(I1
(tg9
I00
S'\x93\xf8\x01A'
tbs(S'Baylor'
p22
g11
tp23
g5
(g6
(I0
tS'b'
tRp24
(I1
(tg9
I00
S'P\xed\x84\xc0'
tbs(S'Oklahoma'
p25
S'Iowa St.'
p26
tp27
g5
(g6
(I0
tS'b'
tRp28
(I1
(tg9
I00
S't\x87\x12\xc0'
tbs(S'South Dakota State'
p29
S'Northern Iowa'
p30
tp31
g5
(g6
(I0
tS'b'
tRp32
(I1
(tg9
I00
S'lOfA'
tbs(S'Fairleigh Dickinson'
p33
S'Iona'
p34
tp35
g5
(g6
(I0
tS'b'
tRp36
(I1
(tg9
I00
S'Q\xb6J\xc1'
tbs(S'Oregon St.'
p37
S'Tulsa'
p38
tp39
g5
(g6
(I0
tS'b'
tRp40
(I1
(tg9
I00
S'\xe3\xe9/\xc1'
tbs(g14
S'Holy Cross'
p41
tp42
g5
(g6
(I0
tS'b'
tRp43
(I1
(tg9
I00
S'\xcd\xfcEA'
tbs(S'Yale'
p44
S'Fresno St.'
p45
tp46
g5
(g6
(I0
tS'b'
tRp47
(I1
(tg9
I00
S'XWi@'
tbs(g25
S'Cincinnati'
p48
tp49
g5
(g6
(I0
tS'b'
tRp50
(I1
(tg9
I00
S'tS,A'
tbs(S'Villanova'
p51
S'Virginia'
p52
tp53
g5
(g6
(I0
tS'b'
tRp54
(I1
(tg9
I00
S'\xd9\x97eA'
tbs(S'Indiana'
p55
S'Michigan St'
p56
tp57
g5
(g6
(I0
tS'b'
tRp58
(I1
(tg9
I00
S'D\xd3\xbb@'
tbs(g48
g30
tp59
g5
(g6
(I0
tS'b'
tRp60
(I1
(tg9
I00
S'\x88\xea\xfe@'
tbs(S'Miami-Florida'
p61
g22
tp62
g5
(g6
(I0
tS'b'
tRp63
(I1
(tg9
I00
S'=\xaf\xc8\xc0'
tbs(S'Pittsburgh'
p64
g33
tp65
g5
(g6
(I0
tS'b'
tRp66
(I1
(tg9
I00
S'\xddkm?'
tbs(S'Arizona'
p67
g15
tp68
g5
(g6
(I0
tS'b'
tRp69
(I1
(tg9
I00
S',3!A'
tbs(S'Chattanooga'
p70
S'Purdue'
p71
tp72
g5
(g6
(I0
tS'b'
tRp73
(I1
(tg9
I00
S'1\xc7\xd1?'
tbs(S'Texas A&M'
p74
S'Duke'
p75
tp76
g5
(g6
(I0
tS'b'
tRp77
(I1
(tg9
I00
S'w\xc9\x9d\xc1'
tbs(S'Stony Brook'
p78
g34
tp79
g5
(g6
(I0
tS'b'
tRp80
(I1
(tg9
I00
S'\x80\xff"\xc1'
tbs(S'Texas'
p81
S'Arkansas-Little Rock'
p82
tp83
g5
(g6
(I0
tS'b'
tRp84
(I1
(tg9
I00
S'U\x12\x16?'
tbs(g29
g75
tp85
g5
(g6
(I0
tS'b'
tRp86
(I1
(tg9
I00
S'\xf9E\xee\xc0'
tbs(g51
g2
tp87
g5
(g6
(I0
tS'b'
tRp88
(I1
(tg9
I00
S'l=wA'
tbs(g51
g10
tp89
g5
(g6
(I0
tS'b'
tRp90
(I1
(tg9
I00
S'\xab\xa7\x8fA'
tbs(g81
S'Utah'
p91
tp92
g5
(g6
(I0
tS'b'
tRp93
(I1
(tg9
I00
S'.\xd9;\xc1'
tbs(S'Colorado'
p94
S'Michigan'
p95
tp96
g5
(g6
(I0
tS'b'
tRp97
(I1
(tg9
I00
S'\xd3|\x7f@'
tbs(g25
g82
tp98
g5
(g6
(I0
tS'b'
tRp99
(I1
(tg9
I00
S'\x1bRAA'
tbs(g44
S'Stephen F. Austin'
p100
tp101
g5
(g6
(I0
tS'b'
tRp102
(I1
(tg9
I00
S'\xda\xed\x12\xc1'
tbs(g67
g81
tp103
g5
(g6
(I0
tS'b'
tRp104
(I1
(tg9
I00
S'\xd8\xf8MA'
tbs(g18
S'Vanderbilt'
p105
tp106
g5
(g6
(I0
tS'b'
tRp107
(I1
(tg9
I00
S'q\x14L@'
tbs(g52
g34
tp108
g5
(g6
(I0
tS'b'
tRp109
(I1
(tg9
I00
S'\x85\x9aW\xc1'
tbs(S'Connecticut'
p110
S'Butler'
p111
tp112
g5
(g6
(I0
tS'b'
tRp113
(I1
(tg9
I00
S'\xa3\xc4\xb9?'
tbs(g110
g45
tp114
g5
(g6
(I0
tS'b'
tRp115
(I1
(tg9
I00
S'\x1aT\xe7@'
tbs(S'Southern'
p116
g64
tp117
g5
(g6
(I0
tS'b'
tRp118
(I1
(tg9
I00
S'u{\xcd\xc0'
tbs(g22
g71
tp119
g5
(g6
(I0
tS'b'
tRp120
(I1
(tg9
I00
S':\xc5\xf6@'
tbs(g51
g95
tp121
g5
(g6
(I0
tS'b'
tRp122
(I1
(tg9
I00
S'\xd3\x04|A'
tbs(g51
S'Syracuse'
p123
tp124
g5
(g6
(I0
tS'b'
tRp125
(I1
(tg9
I00
S"\xc8\xc6'A"
tbs(S'Wichita St.'
p126
g111
tp127
g5
(g6
(I0
tS'b'
tRp128
(I1
(tg9
I00
S'\xd6[\xc3\xc0'
tbs(S'West Virginia'
p129
g34
tp130
g5
(g6
(I0
tS'b'
tRp131
(I1
(tg9
I00
S'DU\xd5\xc0'
tbs(g18
S'N.C. Asheville'
p132
tp133
g5
(g6
(I0
tS'b'
tRp134
(I1
(tg9
I00
S'\xe9\xccW@'
tbs(S'Oregon'
p135
g91
tp136
g5
(g6
(I0
tS'b'
tRp137
(I1
(tg9
I00
S'\xd6_\xf3\xbe'
tbs(g67
g110
tp138
g5
(g6
(I0
tS'b'
tRp139
(I1
(tg9
I00
S'\x04\xe7\xa0@'
tbs(S'California'
p140
g123
tp141
g5
(g6
(I0
tS'b'
tRp142
(I1
(tg9
I00
S'\\\xb8\xab@'
tbs(S'Southern California'
p143
g56
tp144
g5
(g6
(I0
tS'b'
tRp145
(I1
(tg9
I00
S'\xad\xcd\xf8>'
tbs(g105
g26
tp146
g5
(g6
(I0
tS'b'
tRp147
(I1
(tg9
I00
S'\xa4\x18\xda\xc0'
tbs(g30
g95
tp148
g5
(g6
(I0
tS'b'
tRp149
(I1
(tg9
I00
S'8\xb5\xcf\xc0'
tbs(g30
g34
tp150
g5
(g6
(I0
tS'b'
tRp151
(I1
(tg9
I00
S'\xd4\x03\x85\xc1'
tbs(S'Hawaii'
p152
g135
tp153
g5
(g6
(I0
tS'b'
tRp154
(I1
(tg9
I00
S'\xb9\x17$\xc0'
tbs(g105
g82
tp155
g5
(g6
(I0
tS'b'
tRp156
(I1
(tg9
I00
S'\xf0h\xe5@'
tbs(g110
g71
tp157
g5
(g6
(I0
tS'b'
tRp158
(I1
(tg9
I00
S',\x88\xee@'
tbs(g74
g64
tp159
g5
(g6
(I0
tS'b'
tRp160
(I1
(tg9
I00
S'\xdd\xd4\x15\xc0'
tbs(g41
g52
tp161
g5
(g6
(I0
tS'b'
tRp162
(I1
(tg9
I00
S'\xa93t\xc0'
tbs(S'Providence'
p163
g19
tp164
g5
(g6
(I0
tS'b'
tRp165
(I1
(tg9
I00
S'J\xaf\xf4@'
tbs(g140
S'Xavier'
p166
tp167
g5
(g6
(I0
tS'b'
tRp168
(I1
(tg9
I00
S'\x0bO\x11@'
tbs(g44
g123
tp169
g5
(g6
(I0
tS'b'
tRp170
(I1
(tg9
I00
S'\x02\xdf\x91\xbe'
tbs(g41
g33
tp171
g5
(g6
(I0
tS'b'
tRp172
(I1
(tg9
I00
S'\xb8\xd4[\xc0'
tbs(S'Florida Gulf Coast'
p173
S'Middle Tennessee St.'
p174
tp175
g5
(g6
(I0
tS'b'
tRp176
(I1
(tg9
I00
S'\x0eP\x18A'
tbs(g61
S'Buffalo'
p177
tp178
g5
(g6
(I0
tS'b'
tRp179
(I1
(tg9
I00
S'\x85BX\xc1'
tbs(g74
S'NC-Wilmington'
p180
tp181
g5
(g6
(I0
tS'b'
tRp182
(I1
(tg9
I00
S'\x92\xea\x81\xc0'
tbs(g177
g44
tp183
g5
(g6
(I0
tS'b'
tRp184
(I1
(tg9
I00
S')\xa8\x04A'
tbs(S'Notre Dame'
p185
g38
tp186
g5
(g6
(I0
tS'b'
tRp187
(I1
(tg9
I00
S'\xa0?\x0bA'
tbs(g52
g11
tp188
g5
(g6
(I0
tS'b'
tRp189
(I1
(tg9
I00
S'\x81B1\xc1'
tbs(g67
g105
tp190
g5
(g6
(I0
tS'b'
tRp191
(I1
(tg9
I00
S'\xb7\x11\xa4@'
tbs(g61
g26
tp192
g5
(g6
(I0
tS'b'
tRp193
(I1
(tg9
I00
S'M\x077\xc1'
tbs(S'Austin Peay'
p194
g19
tp195
g5
(g6
(I0
tS'b'
tRp196
(I1
(tg9
I00
S'\xbb\xd9\xc0?'
tbs(g67
S"St. Joseph's"
p197
tp198
g5
(g6
(I0
tS'b'
tRp199
(I1
(tg9
I00
S'\xe6\xc7\xf8@'
tbs(g61
g132
tp200
g5
(g6
(I0
tS'b'
tRp201
(I1
(tg9
I00
S'\xdb\xc5\x13\xc1'
tbs(g140
g100
tp202
g5
(g6
(I0
tS'b'
tRp203
(I1
(tg9
I00
S'd\xdc;@'
tbs(g44
g111
tp204
g5
(g6
(I0
tS'b'
tRp205
(I1
(tg9
I00
S'\x0b\xe4\xab\xc0'
tbs(g94
g100
tp206
g5
(g6
(I0
tS'b'
tRp207
(I1
(tg9
I00
S'\xf9]\xfd\xc0'
tbs(g197
g163
tp208
g5
(g6
(I0
tS'b'
tRp209
(I1
(tg9
I00
S'\xec\x1b\xd4\xc0'
tbs(g15
g38
tp210
g5
(g6
(I0
tS'b'
tRp211
(I1
(tg9
I00
S'\xa98h@'
tbs(g3
g30
tp212
g5
(g6
(I0
tS'b'
tRp213
(I1
(tg9
I00
S'/\x0e\x13A'
tbs(S'Dayton'
p214
g11
tp215
g5
(g6
(I0
tS'b'
tRp216
(I1
(tg9
I00
S'\x87e"\xc1'
tbs(g166
g91
tp217
g5
(g6
(I0
tS'b'
tRp218
(I1
(tg9
I00
S'\x03\t\xc7\xbe'
tbs(S'Cal. State - Bakersfield'
p219
g64
tp220
g5
(g6
(I0
tS'b'
tRp221
(I1
(tg9
I00
S'\xcd\xf74\xc1'
tbs(g177
g78
tp222
g5
(g6
(I0
tS'b'
tRp223
(I1
(tg9
I00
S'\xc9\xeap\xc0'
tbs(g166
g78
tp224
g5
(g6
(I0
tS'b'
tRp225
(I1
(tg9
I00
S'\x8c\xa3\xbb?'
tbs(g78
g52
tp226
g5
(g6
(I0
tS'b'
tRp227
(I1
(tg9
I00
S'\xa5M\x84@'
tbs(g152
g95
tp228
g5
(g6
(I0
tS'b'
tRp229
(I1
(tg9
I00
S'\x82\xcb\xd4@'
tbs(g22
g48
tp230
g5
(g6
(I0
tS'b'
tRp231
(I1
(tg9
I00
S'\x05\x1d\x11A'
tbs(g132
g14
tp232
g5
(g6
(I0
tS'b'
tRp233
(I1
(tg9
I00
S'\xd1\xf0\x81\xc0'
tbs(S'Temple'
p234
g81
tp235
g5
(g6
(I0
tS'b'
tRp236
(I1
(tg9
I00
S'E\xb3\x0c\xc0'
tbs(g29
g82
tp237
g5
(g6
(I0
tS'b'
tRp238
(I1
(tg9
I00
S'[>UA'
tbs(g26
g10
tp239
g5
(g6
(I0
tS'b'
tRp240
(I1
(tg9
I00
S'\xe9\n}A'
tbs(g18
g173
tp241
g5
(g6
(I0
tS'b'
tRp242
(I1
(tg9
I00
S'\xbe`\x91@'
tbs(g234
g78
tp243
g5
(g6
(I0
tS'b'
tRp244
(I1
(tg9
I00
S'\x87o\x0e\xc1'
tbs(g67
g34
tp245
g5
(g6
(I0
tS'b'
tRp246
(I1
(tg9
I00
S'C8\x94\xc0'
tbs(g41
g71
tp247
g5
(g6
(I0
tS'b'
tRp248
(I1
(tg9
I00
S'(;\xfc\xc0'
tbs(g2
g132
tp249
g5
(g6
(I0
tS'b'
tRp250
(I1
(tg9
I00
S"\xfdJ'\xc1"
tbs(g219
g111
tp251
g5
(g6
(I0
tS'b'
tRp252
(I1
(tg9
I00
S'\xaf\xfaZ\xc1'
tbs(g110
g91
tp253
g5
(g6
(I0
tS'b'
tRp254
(I1
(tg9
I00
S'{[S\xc0'
tbs(g67
g14
tp255
g5
(g6
(I0
tS'b'
tRp256
(I1
(tg9
I00
S'{2d@'
tbs(g51
g45
tp257
g5
(g6
(I0
tS'b'
tRp258
(I1
(tg9
I00
S'\xd2\xa3BA'
tbs(g177
g41
tp259
g5
(g6
(I0
tS'b'
tRp260
(I1
(tg9
I00
S'\x81\xb4+A'
tbs(S'Kansas'
p261
g75
tp262
g5
(g6
(I0
tS'b'
tRp263
(I1
(tg9
I00
S'*\xb0b\xc1'
tbs(g14
g100
tp264
g5
(g6
(I0
tS'b'
tRp265
(I1
(tg9
I00
S'1\xbfX@'
tbs(g91
g214
tp266
g5
(g6
(I0
tS'b'
tRp267
(I1
(tg9
I00
S',\xba\xaf@'
tbs(g14
g129
tp268
g5
(g6
(I0
tS'b'
tRp269
(I1
(tg9
I00
S'\xad\x06d?'
tbs(g67
g52
tp270
g5
(g6
(I0
tS'b'
tRp271
(I1
(tg9
I00
S'\x7f\x0b`A'
tbs(g94
g11
tp272
g5
(g6
(I0
tS'b'
tRp273
(I1
(tg9
I00
S'\xea\x9eQ\xc1'
tbs(g152
g214
tp274
g5
(g6
(I0
tS'b'
tRp275
(I1
(tg9
I00
S'\x07\xa4!\xc0'
tbs(g126
g48
tp276
g5
(g6
(I0
tS'b'
tRp277
(I1
(tg9
I00
S'K\x08+@'
tbs(g64
g56
tp278
g5
(g6
(I0
tS'b'
tRp279
(I1
(tg9
I00
S' \x7fE\xc1'
tbs(g3
g116
tp280
g5
(g6
(I0
tS'b'
tRp281
(I1
(tg9
I00
S'\xfd?\x1fA'
tbs(g75
g111
tp282
g5
(g6
(I0
tS'b'
tRp283
(I1
(tg9
I00
S'\xd4\xb5\xdb@'
tbs(g81
g219
tp284
g5
(g6
(I0
tS'b'
tRp285
(I1
(tg9
I00
S'\xb8\xc9\xe8@'
tbs(g67
g116
tp286
g5
(g6
(I0
tS'b'
tRp287
(I1
(tg9
I00
S'\xc0\xd1\x85A'
tbs(g234
g34
tp288
g5
(g6
(I0
tS'b'
tRp289
(I1
(tg9
I00
S'\xadJb\xc1'
tbs(g22
g81
tp290
g5
(g6
(I0
tS'b'
tRp291
(I1
(tg9
I00
S'\x90\x15\xca@'
tbs(g78
g100
tp292
g5
(g6
(I0
tS'b'
tRp293
(I1
(tg9
I00
S'/\x14#\xc0'
tbs(g95
g26
tp294
g5
(g6
(I0
tS'b'
tRp295
(I1
(tg9
I00
S'J5U\xc1'
tbs(g234
S'Kentucky'
p296
tp297
g5
(g6
(I0
tS'b'
tRp298
(I1
(tg9
I00
S'\xe3\x9a\xa5\xc0'
tbs(g135
g70
tp299
g5
(g6
(I0
tS'b'
tRp300
(I1
(tg9
I00
S'X\x19\rA'
tbs(g74
g19
tp301
g5
(g6
(I0
tS'b'
tRp302
(I1
(tg9
I00
S'\xf9\xd9\xec\xbf'
tbs(g75
g70
tp303
g5
(g6
(I0
tS'b'
tRp304
(I1
(tg9
I00
S'm\x8e9A'
tbs(g166
g185
tp305
g5
(g6
(I0
tS'b'
tRp306
(I1
(tg9
I00
S'\xfa\xeb\xcd\xc0'
tbs(g51
S'Seton Hall'
p307
tp308
g5
(g6
(I0
tS'b'
tRp309
(I1
(tg9
I00
S'\xec\x1b\xdd@'
tbs(g51
g74
tp310
g5
(g6
(I0
tS'b'
tRp311
(I1
(tg9
I00
S'\xc9\xb39A'
tbs(g234
g95
tp312
g5
(g6
(I0
tS'b'
tRp313
(I1
(tg9
I00
S'\x00\x83\x12\xbf'
tbs(g135
g3
tp314
g5
(g6
(I0
tS'b'
tRp315
(I1
(tg9
I00
S'#\x86\xdf@'
tbs(g94
g56
tp316
g5
(g6
(I0
tS'b'
tRp317
(I1
(tg9
I00
S'm\xa8\xf4\xc0'
tbs(g194
g45
tp318
g5
(g6
(I0
tS'b'
tRp319
(I1
(tg9
I00
S'\x17x\x85\xbf'
tbs(g296
g95
tp320
g5
(g6
(I0
tS'b'
tRp321
(I1
(tg9
I00
S'\x1c\xa4\x1e@'
tbs(g219
g78
tp322
g5
(g6
(I0
tS'b'
tRp323
(I1
(tg9
I00
S'\xbd\xcc]\xc1'
tbs(g18
g197
tp324
g5
(g6
(I0
tS'b'
tRp325
(I1
(tg9
I00
S'\xdf*\xc0@'
tbs(g67
g123
tp326
g5
(g6
(I0
tS'b'
tRp327
(I1
(tg9
I00
S'\xbb\xe65A'
tbs(g56
g174
tp328
g5
(g6
(I0
tS'b'
tRp329
(I1
(tg9
I00
S'9\xa7\x84A'
tbs(g307
g123
tp330
g5
(g6
(I0
tS'b'
tRp331
(I1
(tg9
I00
S'\x91sa@'
tbs(g61
S'Hampton'
p332
tp333
g5
(g6
(I0
tS'b'
tRp334
(I1
(tg9
I00
S'\x10en\xbe'
tbs(g116
g123
tp335
g5
(g6
(I0
tS'b'
tRp336
(I1
(tg9
I00
S'\x12\x0c\xc8\xc0'
tbs(g70
g34
tp337
g5
(g6
(I0
tS'b'
tRp338
(I1
(tg9
I00
S'\x8c%C\xc1'
tbs(g67
g91
tp339
g5
(g6
(I0
tS'b'
tRp340
(I1
(tg9
I00
S'-\x89.@'
tbs(g64
g78
tp341
g5
(g6
(I0
tS'b'
tRp342
(I1
(tg9
I00
S'\r~\x00\xc1'
tbs(g38
g78
tp343
g5
(g6
(I0
tS'b'
tRp344
(I1
(tg9
I00
S'\x7fN\xb4\xbf'
tbs(g177
g100
tp345
g5
(g6
(I0
tS'b'
tRp346
(I1
(tg9
I00
S'\x1d]\xce\xbe'
tbs(g163
g111
tp347
g5
(g6
(I0
tS'b'
tRp348
(I1
(tg9
I00
S'\xc8\xed\x8f@'
tbs(g140
g110
tp349
g5
(g6
(I0
tS'b'
tRp350
(I1
(tg9
I00
S'q+3@'
tbs(g110
g3
tp351
g5
(g6
(I0
tS'b'
tRp352
(I1
(tg9
I00
S'\xf3\xd1o?'
tbs(g74
g48
tp353
g5
(g6
(I0
tS'b'
tRp354
(I1
(tg9
I00
S'r\x88\xaf\xbf'
tbs(g135
g185
tp355
g5
(g6
(I0
tS'b'
tRp356
(I1
(tg9
I00
S'\x08\xe4\xe6\xc0'
tbs(g194
g307
tp357
g5
(g6
(I0
tS'b'
tRp358
(I1
(tg9
I00
S'J,\x95\xc0'
tbs(S'North Carolina'
p359
g95
tp360
g5
(g6
(I0
tS'b'
tRp361
(I1
(tg9
I00
S'U\xb0\x97A'
tbs(g116
g10
tp362
g5
(g6
(I0
tS'b'
tRp363
(I1
(tg9
I00
S'\xf1\xa1\xce?'
tbs(g214
g10
tp364
g5
(g6
(I0
tS'b'
tRp365
(I1
(tg9
I00
S'\xab\xfeHA'
tbs(g37
g15
tp366
g5
(g6
(I0
tS'b'
tRp367
(I1
(tg9
I00
S'\xaf9\x84\xc1'
tbs(g177
g71
tp368
g5
(g6
(I0
tS'b'
tRp369
(I1
(tg9
I00
S'\xf2\xd3\xca@'
tbs(g14
g174
tp370
g5
(g6
(I0
tS'b'
tRp371
(I1
(tg9
I00
S'#@\x8cA'
tbs(g48
g41
tp372
g5
(g6
(I0
tS'b'
tRp373
(I1
(tg9
I00
S'\xe7[:@'
tbs(g2
g129
tp374
g5
(g6
(I0
tS'b'
tRp375
(I1
(tg9
I00
S'\x0c\xe1P\xc1'
tbs(g18
g55
tp376
g5
(g6
(I0
tS'b'
tRp377
(I1
(tg9
I00
S'u\x97r\xc0'
tbs(g2
g111
tp378
g5
(g6
(I0
tS'b'
tRp379
(I1
(tg9
I00
S'\xd3x\x0e\xc1'
tbs(g81
g26
tp380
g5
(g6
(I0
tS'b'
tRp381
(I1
(tg9
I00
S'$\xc0\x19\xc1'
tbs(g37
g100
tp382
g5
(g6
(I0
tS'b'
tRp383
(I1
(tg9
I00
S'5\x84\xa2\xc1'
tbs(g67
g129
tp384
g5
(g6
(I0
tS'b'
tRp385
(I1
(tg9
I00
S'9\xe9\xfd?'
tbs(g177
g56
tp386
g5
(g6
(I0
tS'b'
tRp387
(I1
(tg9
I00
S'\xee\xc92\xc0'
tbs(g166
g38
tp388
g5
(g6
(I0
tS'b'
tRp389
(I1
(tg9
I00
S'T\xaf\x8d@'
tbs(g81
g185
tp390
g5
(g6
(I0
tS'b'
tRp391
(I1
(tg9
I00
S'\x85YN\xc1'
tbs(g18
g33
tp392
g5
(g6
(I0
tS'b'
tRp393
(I1
(tg9
I00
S'm\xb15A'
tbs(g152
g197
tp394
g5
(g6
(I0
tS'b'
tRp395
(I1
(tg9
I00
S'W\xb2\x13@'
tbs(g29
g219
tp396
g5
(g6
(I0
tS'b'
tRp397
(I1
(tg9
I00
S'{\x00tA'
tbs(g296
g100
tp398
g5
(g6
(I0
tS'b'
tRp399
(I1
(tg9
I00
S'\xb3f\x03\xc1'
tbs(g261
g197
tp400
g5
(g6
(I0
tS'b'
tRp401
(I1
(tg9
I00
S'\x00\x91\x10@'
tbs(g105
g75
tp402
g5
(g6
(I0
tS'b'
tRp403
(I1
(tg9
I00
S'a\xd2S\xc1'
tbs(g75
g19
tp404
g5
(g6
(I0
tS'b'
tRp405
(I1
(tg9
I00
S'z\xf4&A'
tbs(g25
g296
tp406
g5
(g6
(I0
tS'b'
tRp407
(I1
(tg9
I00
S'\xb3$`A'
tbs(g48
g143
tp408
g5
(g6
(I0
tS'b'
tRp409
(I1
(tg9
I00
S'\xb0\xbf\xcb\xc0'
tbs(g38
g174
tp410
g5
(g6
(I0
tS'b'
tRp411
(I1
(tg9
I00
S'$\x9d\xf0@'
tbs(g18
g11
tp412
g5
(g6
(I0
tS'b'
tRp413
(I1
(tg9
I00
S'\xe4\xf5\x0f\xc1'
tbs(g26
g45
tp414
g5
(g6
(I0
tS'b'
tRp415
(I1
(tg9
I00
S'\xef\xae)A'
tbs(g22
g19
tp416
g5
(g6
(I0
tS'b'
tRp417
(I1
(tg9
I00
S'\x7fo`@'
tbs(g67
g332
tp418
g5
(g6
(I0
tS'b'
tRp419
(I1
(tg9
I00
S'\xf2frA'
tbs(g51
g14
tp420
g5
(g6
(I0
tS'b'
tRp421
(I1
(tg9
I00
S'\x00\xdd\x82@'
tbs(g214
g174
tp422
g5
(g6
(I0
tS'b'
tRp423
(I1
(tg9
I00
S'Y\xb8!A'
tbs(g25
g91
tp424
g5
(g6
(I0
tS'b'
tRp425
(I1
(tg9
I00
S'Yba@'
tbs(g296
g173
tp426
g5
(g6
(I0
tS'b'
tRp427
(I1
(tg9
I00
S'W.\xf1\xc0'
tbs(g18
g41
tp428
g5
(g6
(I0
tS'b'
tRp429
(I1
(tg9
I00
S'\xa2y\x14A'
tbs(g185
g11
tp430
g5
(g6
(I0
tS'b'
tRp431
(I1
(tg9
I00
S'\x996\x89?'
tbs(g126
g10
tp432
g5
(g6
(I0
tS'b'
tRp433
(I1
(tg9
I00
S'\xb5\x18"A'
tbs(g3
g123
tp434
g5
(g6
(I0
tS'b'
tRp435
(I1
(tg9
I00
S'\xfa\xc1\xa7@'
tbs(g29
g152
tp436
g5
(g6
(I0
tS'b'
tRp437
(I1
(tg9
I00
S')M\x08A'
tbs(g37
g11
tp438
g5
(g6
(I0
tS'b'
tRp439
(I1
(tg9
I00
S'\x89\xf7\x97\xc1'
tbs(g41
g55
tp440
g5
(g6
(I0
tS'b'
tRp441
(I1
(tg9
I00
S'0Y\x81\xc1'
tbs(g70
g214
tp442
g5
(g6
(I0
tS'b'
tRp443
(I1
(tg9
I00
S'B\x86\x99\xc0'
tbs(g74
g44
tp444
g5
(g6
(I0
tS'b'
tRp445
(I1
(tg9
I00
S't\xdf\xdd\xbf'
tbs(g78
g173
tp446
g5
(g6
(I0
tS'b'
tRp447
(I1
(tg9
I00
S';\x11\x12@'
tbs(g70
g82
tp448
g5
(g6
(I0
tS'b'
tRp449
(I1
(tg9
I00
S'\xbd\x19\x1d@'
tbs(g359
g15
tp450
g5
(g6
(I0
tS'b'
tRp451
(I1
(tg9
I00
S'\\\xd0\x84A'
tbs(g166
g55
tp452
g5
(g6
(I0
tS'b'
tRp453
(I1
(tg9
I00
S'h\xf8\x96\xc0'
tbs(g261
g129
tp454
g5
(g6
(I0
tS'b'
tRp455
(I1
(tg9
I00
S'}}\x16\xc1'
tbs(g26
g307
tp456
g5
(g6
(I0
tS'b'
tRp457
(I1
(tg9
I00
S'\x18\x9b\xde@'
tbs(g51
g111
tp458
g5
(g6
(I0
tS'b'
tRp459
(I1
(tg9
I00
S'\xc4\xb1\x12A'
tbs(g67
g70
tp460
g5
(g6
(I0
tS'b'
tRp461
(I1
(tg9
I00
S'\x9bT5A'
tbs(g166
g163
tp462
g5
(g6
(I0
tS'b'
tRp463
(I1
(tg9
I00
S'\x05\xe4\xa0?'
tbs(g41
g70
tp464
g5
(g6
(I0
tS'b'
tRp465
(I1
(tg9
I00
S'+X\x8d\xc0'
tbs(g33
g332
tp466
g5
(g6
(I0
tS'b'
tRp467
(I1
(tg9
I00
S'8\xfcw<'
tbs(g55
g19
tp468
g5
(g6
(I0
tS'b'
tRp469
(I1
(tg9
I00
S'2\xd64A'
tbs(g64
g10
tp470
g5
(g6
(I0
tS'b'
tRp471
(I1
(tg9
I00
S' \x88\xbd@'
tbs(g37
g52
tp472
g5
(g6
(I0
tS'b'
tRp473
(I1
(tg9
I00
S's(\x16\xc1'
tbs(g67
g10
tp474
g5
(g6
(I0
tS'b'
tRp475
(I1
(tg9
I00
S'o\xfe\xa1A'
tbs(g185
g64
tp476
g5
(g6
(I0
tS'b'
tRp477
(I1
(tg9
I00
S'\xcf|\x02A'
tbs(g75
g129
tp478
g5
(g6
(I0
tS'b'
tRp479
(I1
(tg9
I00
S'\xf6\x99N@'
tbs(g41
g45
tp480
g5
(g6
(I0
tS'b'
tRp481
(I1
(tg9
I00
S'\x1f&f\xc0'
tbs(g18
g71
tp482
g5
(g6
(I0
tS'b'
tRp483
(I1
(tg9
I00
S'\x03\xcf3A'
tbs(g51
g81
tp484
g5
(g6
(I0
tS'b'
tRp485
(I1
(tg9
I00
S'\x93\xca[A'
tbs(g51
g64
tp486
g5
(g6
(I0
tS'b'
tRp487
(I1
(tg9
I00
S'\xbc\x00\xf7@'
tbs(g152
g177
tp488
g5
(g6
(I0
tS'b'
tRp489
(I1
(tg9
I00
S'\x97p\x87\xbf'
tbs(g25
g359
tp490
g5
(g6
(I0
tS'b'
tRp491
(I1
(tg9
I00
S'\xe16\x8f\xc0'
tbs(g18
g111
tp492
g5
(g6
(I0
tS'b'
tRp493
(I1
(tg9
I00
S'\x0f\r\xc0@'
tbs(g38
g214
tp494
g5
(g6
(I0
tS'b'
tRp495
(I1
(tg9
I00
S'\x97\xf5\x16\xc0'
tbs(g30
g143
tp496
g5
(g6
(I0
tS'b'
tRp497
(I1
(tg9
I00
S'\xda\xe2l\xc1'
tbs(g143
g163
tp498
g5
(g6
(I0
tS'b'
tRp499
(I1
(tg9
I00
S'\x1aT2>'
tbs(g74
g11
tp500
g5
(g6
(I0
tS'b'
tRp501
(I1
(tg9
I00
S'1<^\xc1'
tbs(g14
g111
tp502
g5
(g6
(I0
tS'b'
tRp503
(I1
(tg9
I00
S'Vn\xbc@'
tbs(g116
g55
tp504
g5
(g6
(I0
tS'b'
tRp505
(I1
(tg9
I00
S'\x7fD\xa5\xc1'
tbs(g152
g82
tp506
g5
(g6
(I0
tS'b'
tRp507
(I1
(tg9
I00
S'N\xf6\xeb@'
tbs(g140
g185
tp508
g5
(g6
(I0
tS'b'
tRp509
(I1
(tg9
I00
S'\x98\xfb\xdf\xc0'
tbs(g71
g332
tp510
g5
(g6
(I0
tS'b'
tRp511
(I1
(tg9
I00
S'6\xb2\x18\xc0'
tbs(g140
g71
tp512
g5
(g6
(I0
tS'b'
tRp513
(I1
(tg9
I00
S'\x19~\xe6@'
tbs(g25
g30
tp514
g5
(g6
(I0
tS'b'
tRp515
(I1
(tg9
I00
S'\x85\xeedA'
tbs(g261
g52
tp516
g5
(g6
(I0
tS'b'
tRp517
(I1
(tg9
I00
S'F\xab\xb2@'
tbs(g261
g38
tp518
g5
(g6
(I0
tS'b'
tRp519
(I1
(tg9
I00
S'\xb0\xd1E?'
tbs(g51
g44
tp520
g5
(g6
(I0
tS'b'
tRp521
(I1
(tg9
I00
S'\xd1\xf05A'
tbs(g296
g214
tp522
g5
(g6
(I0
tS'b'
tRp523
(I1
(tg9
I00
S'b\xa0\x96\xc0'
tbs(g2
g100
tp524
g5
(g6
(I0
tS'b'
tRp525
(I1
(tg9
I00
S'4.w\xc1'
tbs(g75
g71
tp526
g5
(g6
(I0
tS'b'
tRp527
(I1
(tg9
I00
S'~\xe7kA'
tbs(g37
g111
tp528
g5
(g6
(I0
tS'b'
tRp529
(I1
(tg9
I00
S'\x19\xb6g\xc1'
tbs(g129
g11
tp530
g5
(g6
(I0
tS'b'
tRp531
(I1
(tg9
I00
S'\xd5\x91\x04\xc1'
tbs(g126
g52
tp532
g5
(g6
(I0
tS'b'
tRp533
(I1
(tg9
I00
S'\xcf\xdaV@'
tbs(g135
g163
tp534
g5
(g6
(I0
tS'b'
tRp535
(I1
(tg9
I00
S'y\xfb\xd7\xbe'
tbs(g116
g52
tp536
g5
(g6
(I0
tS'b'
tRp537
(I1
(tg9
I00
S';\xa1]\xc0'
tbs(g41
g307
tp538
g5
(g6
(I0
tS'b'
tRp539
(I1
(tg9
I00
S'D\x97?\xc1'
tbs(g166
g174
tp540
g5
(g6
(I0
tS'b'
tRp541
(I1
(tg9
I00
S'#\xfbuA'
tbs(g75
g10
tp542
g5
(g6
(I0
tS'b'
tRp543
(I1
(tg9
I00
S'\xb1+\xaaA'
tbs(g25
g34
tp544
g5
(g6
(I0
tS'b'
tRp545
(I1
(tg9
I00
S'\x07\x08[\xc0'
tbs(g359
g111
tp546
g5
(g6
(I0
tS'b'
tRp547
(I1
(tg9
I00
S'\x9b\x83\x1bA'
tbs(g81
g95
tp548
g5
(g6
(I0
tS'b'
tRp549
(I1
(tg9
I00
S'-y%\xbf'
tbs(g64
g38
tp550
g5
(g6
(I0
tS'b'
tRp551
(I1
(tg9
I00
S'\xf2\xd4\xb6\xc0'
tbs(g140
g173
tp552
g5
(g6
(I0
tS'b'
tRp553
(I1
(tg9
I00
S'\x01\\\xbb@'
tbs(g61
g111
tp554
g5
(g6
(I0
tS'b'
tRp555
(I1
(tg9
I00
S'/\x86\r\xc1'
tbs(g261
g15
tp556
g5
(g6
(I0
tS'b'
tRp557
(I1
(tg9
I00
S'\xc5\xb6\xbb?'
tbs(g37
g70
tp558
g5
(g6
(I0
tS'b'
tRp559
(I1
(tg9
I00
S'\xd1\x94&\xc1'
tbs(g105
g197
tp560
g5
(g6
(I0
tS'b'
tRp561
(I1
(tg9
I00
S'F\xde\x82@'
tbs(g197
g41
tp562
g5
(g6
(I0
tS'b'
tRp563
(I1
(tg9
I00
S'\x82#\xdd@'
tbs(g194
g123
tp564
g5
(g6
(I0
tS'b'
tRp565
(I1
(tg9
I00
S'\xa4;k\xbf'
tbs(g81
g55
tp566
g5
(g6
(I0
tS'b'
tRp567
(I1
(tg9
I00
S'\xd3}d\xc1'
tbs(g64
g82
tp568
g5
(g6
(I0
tS'b'
tRp569
(I1
(tg9
I00
S'\xdd\xad\x1d@'
tbs(g41
g38
tp570
g5
(g6
(I0
tS'b'
tRp571
(I1
(tg9
I00
S'\xe3\x18\xd2\xc0'
tbs(g126
g19
tp572
g5
(g6
(I0
tS'b'
tRp573
(I1
(tg9
I00
S'5Y\xed?'
tbs(g14
g45
tp574
g5
(g6
(I0
tS'b'
tRp575
(I1
(tg9
I00
S'\x8f\xe3?A'
tbs(g61
g307
tp576
g5
(g6
(I0
tS'b'
tRp577
(I1
(tg9
I00
S':1\xdc\xc0'
tbs(g296
g38
tp578
g5
(g6
(I0
tS'b'
tRp579
(I1
(tg9
I00
S'\x80\xf7\x89\xc0'
tbs(g219
g123
tp580
g5
(g6
(I0
tS'b'
tRp581
(I1
(tg9
I00
S"'\xd2\x0e\xc1"
tbs(g19
g174
tp582
g5
(g6
(I0
tS'b'
tRp583
(I1
(tg9
I00
S'f\x08\x95@'
tbs(g81
g163
tp584
g5
(g6
(I0
tS'b'
tRp585
(I1
(tg9
I00
S'\x0b\xc2>\xc1'
tbs(g48
g166
tp586
g5
(g6
(I0
tS'b'
tRp587
(I1
(tg9
I00
S'\x17\xcb\xf9\xc0'
tbs(g37
g359
tp588
g5
(g6
(I0
tS'b'
tRp589
(I1
(tg9
I00
S'T\\\xb0\xc1'
tbs(g219
g95
tp590
g5
(g6
(I0
tS'b'
tRp591
(I1
(tg9
I00
S';D\xcb\xc0'
tbs(g44
g116
tp592
g5
(g6
(I0
tS'b'
tRp593
(I1
(tg9
I00
S'[ro@'
tbs(g25
g14
tp594
g5
(g6
(I0
tS'b'
tRp595
(I1
(tg9
I00
S'\xad!\xac@'
tbs(g359
g185
tp596
g5
(g6
(I0
tS'b'
tRp597
(I1
(tg9
I00
S'\xcd\xd2\r@'
tbs(g3
g296
tp598
g5
(g6
(I0
tS'b'
tRp599
(I1
(tg9
I00
S'\xe3\xb1\xa9='
tbs(g135
g95
tp600
g5
(g6
(I0
tS'b'
tRp601
(I1
(tg9
I00
S'\xa5\xf6=A'
tbs(g261
g180
tp602
g5
(g6
(I0
tS'b'
tRp603
(I1
(tg9
I00
S'Wh"@'
tbs(g25
g33
tp604
g5
(g6
(I0
tS'b'
tRp605
(I1
(tg9
I00
S'\xf3T\x08A'
tbs(g129
g64
tp606
g5
(g6
(I0
tS'b'
tRp607
(I1
(tg9
I00
S'\x12\x88\xf6\xbe'
tbs(g152
g22
tp608
g5
(g6
(I0
tS'b'
tRp609
(I1
(tg9
I00
S'uIB\xc0'
tbs(g110
g56
tp610
g5
(g6
(I0
tS'b'
tRp611
(I1
(tg9
I00
S'\xc4\xb1k\xc0'
tbs(g33
g45
tp612
g5
(g6
(I0
tS'b'
tRp613
(I1
(tg9
I00
S'\xd6\x0bR@'
tbs(g41
g15
tp614
g5
(g6
(I0
tS'b'
tRp615
(I1
(tg9
I00
S'@\xd8\x1d\xc1'
tbs(g37
g48
tp616
g5
(g6
(I0
tS'b'
tRp617
(I1
(tg9
I00
S'\x1b\x10\x17\xc1'
tbs(g25
g38
tp618
g5
(g6
(I0
tS'b'
tRp619
(I1
(tg9
I00
S'\x92\x9e\xeb@'
tbs(g37
g56
tp620
g5
(g6
(I0
tS'b'
tRp621
(I1
(tg9
I00
S'\nv\x88\xc1'
tbs(g296
g26
tp622
g5
(g6
(I0
tS'b'
tRp623
(I1
(tg9
I00
S'\xafI\x0b\xc1'
tbs(g116
g34
tp624
g5
(g6
(I0
tS'b'
tRp625
(I1
(tg9
I00
S'\x9f~\x91\xc1'
tbs(g29
g174
tp626
g5
(g6
(I0
tS'b'
tRp627
(I1
(tg9
I00
S'\x1c\x00{A'
tbs(g29
g3
tp628
g5
(g6
(I0
tS'b'
tRp629
(I1
(tg9
I00
S'x\xa6\xc6@'
tbs(g67
g163
tp630
g5
(g6
(I0
tS'b'
tRp631
(I1
(tg9
I00
S'\x83\xb6\t@'
tbs(g219
g116
tp632
g5
(g6
(I0
tS'b'
tRp633
(I1
(tg9
I00
S'\x97D\x8c\xc0'
tbs(g197
g116
tp634
g5
(g6
(I0
tS'b'
tRp635
(I1
(tg9
I00
S'^\x16\xac@'
tbs(g18
g29
tp636
g5
(g6
(I0
tS'b'
tRp637
(I1
(tg9
I00
S'~\x1e"\xbe'
tbs(g29
g197
tp638
g5
(g6
(I0
tS'b'
tRp639
(I1
(tg9
I00
S't\xa6\xf9@'
tbs(g48
g10
tp640
g5
(g6
(I0
tS'b'
tRp641
(I1
(tg9
I00
S'\xba;\xd1@'
tbs(g19
g26
tp642
g5
(g6
(I0
tS'b'
tRp643
(I1
(tg9
I00
S'\x15\xf0\x05\xc1'
tbs(g61
g234
tp644
g5
(g6
(I0
tS'b'
tRp645
(I1
(tg9
I00
S'\x19t\x14?'
tbs(g110
g194
tp646
g5
(g6
(I0
tS'b'
tRp647
(I1
(tg9
I00
S'\x8f\xfa\xf2@'
tbs(g234
g135
tp648
g5
(g6
(I0
tS'b'
tRp649
(I1
(tg9
I00
S'c\xd2"\xc1'
tbs(g30
g82
tp650
g5
(g6
(I0
tS'b'
tRp651
(I1
(tg9
I00
S'\x98@\xa4\xc0'
tbs(g219
g52
tp652
g5
(g6
(I0
tS'b'
tRp653
(I1
(tg9
I00
S'\xfe[\xb4\xc0'
tbs(g296
g185
tp654
g5
(g6
(I0
tS'b'
tRp655
(I1
(tg9
I00
S'\xad\xeb1\xc1'
tbs(g177
g22
tp656
g5
(g6
(I0
tS'b'
tRp657
(I1
(tg9
I00
S')9\r@'
tbs(g194
g166
tp658
g5
(g6
(I0
tS'b'
tRp659
(I1
(tg9
I00
S'\xdcs\x0e\xc1'
tbs(g25
g71
tp660
g5
(g6
(I0
tS'b'
tRp661
(I1
(tg9
I00
S'\xf4K\x1dA'
tbs(g94
g173
tp662
g5
(g6
(I0
tS'b'
tRp663
(I1
(tg9
I00
S'\xaf\x84\x97\xc0'
tbs(g41
g11
tp664
g5
(g6
(I0
tS'b'
tRp665
(I1
(tg9
I00
S'(\xb4\x85\xc1'
tbs(g30
g174
tp666
g5
(g6
(I0
tS'b'
tRp667
(I1
(tg9
I00
S'\x99f\x14\xc0'
tbs(g37
g332
tp668
g5
(g6
(I0
tS'b'
tRp669
(I1
(tg9
I00
S'\xecHa\xc1'
tbs(g185
g33
tp670
g5
(g6
(I0
tS'b'
tRp671
(I1
(tg9
I00
S'[\xe16A'
tbs(g105
g52
tp672
g5
(g6
(I0
tS'b'
tRp673
(I1
(tg9
I00
S'\xd1\xc5\xcf@'
tbs(g2
g75
tp674
g5
(g6
(I0
tS'b'
tRp675
(I1
(tg9
I00
S'\xb9\x87\xa4\xc1'
tbs(g219
g11
tp676
g5
(g6
(I0
tS'b'
tRp677
(I1
(tg9
I00
S'\x0bU\x93\xc1'
tbs(g51
g37
tp678
g5
(g6
(I0
tS'b'
tRp679
(I1
(tg9
I00
S'\x9f\x12\x8fA'
tbs(g105
g64
tp680
g5
(g6
(I0
tS'b'
tRp681
(I1
(tg9
I00
S'\xd3\xcd\x13@'
tbs(g29
g185
tp682
g5
(g6
(I0
tS'b'
tRp683
(I1
(tg9
I00
S'\xd9\xb6\xcd\xc0'
tbs(g51
g173
tp684
g5
(g6
(I0
tS'b'
tRp685
(I1
(tg9
I00
S'\x9c\x0f0A'
tbs(g177
g174
tp686
g5
(g6
(I0
tS'b'
tRp687
(I1
(tg9
I00
S'+\xdaZA'
tbs(g3
g55
tp688
g5
(g6
(I0
tS'b'
tRp689
(I1
(tg9
I00
S'\xe4\x1dC\xc1'
tbs(g140
g116
tp690
g5
(g6
(I0
tS'b'
tRp691
(I1
(tg9
I00
S'N\x8aWA'
tbs(g94
g116
tp692
g5
(g6
(I0
tS'b'
tRp693
(I1
(tg9
I00
S'6Y\x94@'
tbs(g116
g38
tp694
g5
(g6
(I0
tS'b'
tRp695
(I1
(tg9
I00
S'\x0f\t#\xc1'
tbs(g94
g174
tp696
g5
(g6
(I0
tS'b'
tRp697
(I1
(tg9
I00
S'f\x8d\xad@'
tbs(g67
g64
tp698
g5
(g6
(I0
tS'b'
tRp699
(I1
(tg9
I00
S'\x17\xe7$A'
tbs(g261
g174
tp700
g5
(g6
(I0
tS'b'
tRp701
(I1
(tg9
I00
S'O\xc9$A'
tbs(g3
g163
tp702
g5
(g6
(I0
tS'b'
tRp703
(I1
(tg9
I00
S'\xbc2\x10\xc1'
tbs(g33
g174
tp704
g5
(g6
(I0
tS'b'
tRp705
(I1
(tg9
I00
S'\x80K\xc0@'
tbs(g74
g10
tp706
g5
(g6
(I0
tS'b'
tRp707
(I1
(tg9
I00
S'f^\x84@'
tbs(g61
g48
tp708
g5
(g6
(I0
tS'b'
tRp709
(I1
(tg9
I00
S'\xb3&N\xc0'
tbs(g38
g56
tp710
g5
(g6
(I0
tS'b'
tRp711
(I1
(tg9
I00
S'7\xc4e\xc0'
tbs(g135
g71
tp712
g5
(g6
(I0
tS'b'
tRp713
(I1
(tg9
I00
S'\xbc\xa1\xfa@'
tbs(g29
g55
tp714
g5
(g6
(I0
tS'b'
tRp715
(I1
(tg9
I00
S'\xb9\xed\x87\xc0'
tbs(g44
g173
tp716
g5
(g6
(I0
tS'b'
tRp717
(I1
(tg9
I00
S'nj\x87\xc0'
tbs(g177
g173
tp718
g5
(g6
(I0
tS'b'
tRp719
(I1
(tg9
I00
S'LN\xa3@'
tbs(g44
g33
tp720
g5
(g6
(I0
tS'b'
tRp721
(I1
(tg9
I00
S'\xdf$J@'
tbs(g261
g185
tp722
g5
(g6
(I0
tS'b'
tRp723
(I1
(tg9
I00
S'kD\x0f\xc1'
tbs(g44
g307
tp724
g5
(g6
(I0
tS'b'
tRp725
(I1
(tg9
I00
S'\xd9\x9dd\xc0'
tbs(g135
g81
tp726
g5
(g6
(I0
tS'b'
tRp727
(I1
(tg9
I00
S'>\xa8\x1eA'
tbs(g177
g3
tp728
g5
(g6
(I0
tS'b'
tRp729
(I1
(tg9
I00
S'9\r\x15@'
tbs(g359
g91
tp730
g5
(g6
(I0
tS'b'
tRp731
(I1
(tg9
I00
S'\xd2\xea\x08A'
tbs(g152
g100
tp732
g5
(g6
(I0
tS'b'
tRp733
(I1
(tg9
I00
S'\xfa\x8ay\xc0'
tbs(g56
g111
tp734
g5
(g6
(I0
tS'b'
tRp735
(I1
(tg9
I00
S'\x95\xdbT@'
tbs(g135
g30
tp736
g5
(g6
(I0
tS'b'
tRp737
(I1
(tg9
I00
S'(]FA'
tbs(g51
g135
tp738
g5
(g6
(I0
tS'b'
tRp739
(I1
(tg9
I00
S'\xa5[\xdc@'
tbs(g140
g33
tp740
g5
(g6
(I0
tS'b'
tRp741
(I1
(tg9
I00
S'q\x9c\x1fA'
tbs(g51
g67
tp742
g5
(g6
(I0
tS'b'
tRp743
(I1
(tg9
I00
S'\x19\x1eA@'
tbs(g234
g3
tp744
g5
(g6
(I0
tS'b'
tRp745
(I1
(tg9
I00
S'M\xc0\x94\xc0'
tbs(g55
g173
tp746
g5
(g6
(I0
tS'b'
tRp747
(I1
(tg9
I00
S'\x83aOA'
tbs(g14
g38
tp748
g5
(g6
(I0
tS'b'
tRp749
(I1
(tg9
I00
S'\x12\x82\xe0@'
tbs(g105
g71
tp750
g5
(g6
(I0
tS'b'
tRp751
(I1
(tg9
I00
S'\x9aL\x06A'
tbs(g177
g19
tp752
g5
(g6
(I0
tS'b'
tRp753
(I1
(tg9
I00
S'\xf0\xfc\x83?'
tbs(g94
g78
tp754
g5
(g6
(I0
tS'b'
tRp755
(I1
(tg9
I00
S'9x\x02\xc1'
tbs(g44
g38
tp756
g5
(g6
(I0
tS'b'
tRp757
(I1
(tg9
I00
S'C\x19\xb3\xbf'
tbs(g140
g152
tp758
g5
(g6
(I0
tS'b'
tRp759
(I1
(tg9
I00
S'\xdf\xcc\xab@'
tbs(g81
g3
tp760
g5
(g6
(I0
tS'b'
tRp761
(I1
(tg9
I00
S'\x05\x05\xc8\xc0'
tbs(g61
g95
tp762
g5
(g6
(I0
tS'b'
tRp763
(I1
(tg9
I00
S'\xe5\xb9Y\xbf'
tbs(g126
g129
tp764
g5
(g6
(I0
tS'b'
tRp765
(I1
(tg9
I00
S'8\xed\x1c\xc1'
tbs(g307
g174
tp766
g5
(g6
(I0
tS'b'
tRp767
(I1
(tg9
I00
S'1\x85\x1dA'
tbs(g29
g135
tp768
g5
(g6
(I0
tS'b'
tRp769
(I1
(tg9
I00
S'M\xf9\x1c@'
tbs(g163
g52
tp770
g5
(g6
(I0
tS'b'
tRp771
(I1
(tg9
I00
S'\xff\xf10A'
tbs(g18
g75
tp772
g5
(g6
(I0
tS'b'
tRp773
(I1
(tg9
I00
S'\xc2\xc4\x02\xc1'
tbs(g3
g174
tp774
g5
(g6
(I0
tS'b'
tRp775
(I1
(tg9
I00
S'\x98}\xfa@'
tbs(g166
g15
tp776
g5
(g6
(I0
tS'b'
tRp777
(I1
(tg9
I00
S'\xc9\xdej@'
tbs(g48
g45
tp778
g5
(g6
(I0
tS'b'
tRp779
(I1
(tg9
I00
S'*\xc7\x88\xbe'
tbs(g2
g177
tp780
g5
(g6
(I0
tS'b'
tRp781
(I1
(tg9
I00
S'\xb4\xf8|\xc1'
tbs(g74
g37
tp782
g5
(g6
(I0
tS'b'
tRp783
(I1
(tg9
I00
S']$8A'
tbs(g359
g11
tp784
g5
(g6
(I0
tS'b'
tRp785
(I1
(tg9
I00
S'\xc3\xae\xfa?'
tbs(g105
g38
tp786
g5
(g6
(I0
tS'b'
tRp787
(I1
(tg9
I00
S'\xbbd @'
tbs(g194
g100
tp788
g5
(g6
(I0
tS'b'
tRp789
(I1
(tg9
I00
S'g\xf5\xcd\xc0'
tbs(g135
g123
tp790
g5
(g6
(I0
tS'b'
tRp791
(I1
(tg9
I00
S'_\xb8\xc3@'
tbs(g81
g214
tp792
g5
(g6
(I0
tS'b'
tRp793
(I1
(tg9
I00
S'\t\xce\xc1\xc0'
tbs(g44
g15
tp794
g5
(g6
(I0
tS'b'
tRp795
(I1
(tg9
I00
S'\xfaM\xca\xc0'
tbs(g197
g38
tp796
g5
(g6
(I0
tS'b'
tRp797
(I1
(tg9
I00
S'\x01\xed\xe6\xbf'
tbs(g37
g180
tp798
g5
(g6
(I0
tS'b'
tRp799
(I1
(tg9
I00
S'\xba\x05c\xc1'
tbs(g30
g359
tp800
g5
(g6
(I0
tS'b'
tRp801
(I1
(tg9
I00
S'0\xb9\x92\xc1'
tbs(g2
g22
tp802
g5
(g6
(I0
tS'b'
tRp803
(I1
(tg9
I00
S'"\x82\xe9\xc0'
tbs(g126
g132
tp804
g5
(g6
(I0
tS'b'
tRp805
(I1
(tg9
I00
S'\x99\xb7\x07\xc1'
tbs(g140
g48
tp806
g5
(g6
(I0
tS'b'
tRp807
(I1
(tg9
I00
S'\xee\xbe\rA'
tbs(g140
g22
tp808
g5
(g6
(I0
tS'b'
tRp809
(I1
(tg9
I00
S'\xd1ck@'
tbs(g110
g105
tp810
g5
(g6
(I0
tS'b'
tRp811
(I1
(tg9
I00
S'\xfb\xe1\xd2>'
tbs(g234
g163
tp812
g5
(g6
(I0
tS'b'
tRp813
(I1
(tg9
I00
S"\xeb\xd1'\xc1"
tbs(g30
g71
tp814
g5
(g6
(I0
tS'b'
tRp815
(I1
(tg9
I00
S'O\xd2\xcd\xc0'
tbs(g110
g48
tp816
g5
(g6
(I0
tS'b'
tRp817
(I1
(tg9
I00
S'\xca\xe4\x8a@'
tbs(g30
g70
tp818
g5
(g6
(I0
tS'b'
tRp819
(I1
(tg9
I00
S'\xaf\\\x9d\xc0'
tbs(g29
g132
tp820
g5
(g6
(I0
tS'b'
tRp821
(I1
(tg9
I00
S'@\x04\xc8@'
tbs(g261
g219
tp822
g5
(g6
(I0
tS'b'
tRp823
(I1
(tg9
I00
S'\xfc\xbf"A'
tbs(g29
g78
tp824
g5
(g6
(I0
tS'b'
tRp825
(I1
(tg9
I00
S's4\xb3?'
tbs(g110
g75
tp826
g5
(g6
(I0
tS'b'
tRp827
(I1
(tg9
I00
S'[w)\xc1'
tbs(g140
g197
tp828
g5
(g6
(I0
tS'b'
tRp829
(I1
(tg9
I00
S'\x91\x82\xc4@'
tbs(g61
g135
tp830
g5
(g6
(I0
tS'b'
tRp831
(I1
(tg9
I00
S'\xd1\x8f\x15\xc1'
tbs(g18
g126
tp832
g5
(g6
(I0
tS'b'
tRp833
(I1
(tg9
I00
S'\x90\x89\x1eA'
tbs(g33
g307
tp834
g5
(g6
(I0
tS'b'
tRp835
(I1
(tg9
I00
S'\x11~\xb9\xc0'
tbs(g152
g56
tp836
g5
(g6
(I0
tS'b'
tRp837
(I1
(tg9
I00
S'P!_\xc0'
tbs(g2
g18
tp838
g5
(g6
(I0
tS'b'
tRp839
(I1
(tg9
I00
S'-\x81S\xc1'
tbs(g51
g185
tp840
g5
(g6
(I0
tS'b'
tRp841
(I1
(tg9
I00
S'\xed\xd6\x94\xbf'
tbs(g56
g71
tp842
g5
(g6
(I0
tS'b'
tRp843
(I1
(tg9
I00
S"\xf7\x10'A"
tbs(g22
g10
tp844
g5
(g6
(I0
tS'b'
tRp845
(I1
(tg9
I00
S'\xeeW\x1aA'
tbs(g185
g173
tp846
g5
(g6
(I0
tS'b'
tRp847
(I1
(tg9
I00
S'iv+A'
tbs(g166
g307
tp848
g5
(g6
(I0
tS'b'
tRp849
(I1
(tg9
I00
S'\x9e\xb5;@'
tbs(g296
g163
tp850
g5
(g6
(I0
tS'b'
tRp851
(I1
(tg9
I00
S'\xc9\x0e(\xc1'
tbs(g126
g177
tp852
g5
(g6
(I0
tS'b'
tRp853
(I1
(tg9
I00
S'q\x13\xed\xc0'
tbs(g185
g91
tp854
g5
(g6
(I0
tS'b'
tRp855
(I1
(tg9
I00
S'W\xd9\xae@'
tbs(g163
g91
tp856
g5
(g6
(I0
tS'b'
tRp857
(I1
(tg9
I00
S's\x129\xbf'
tbs(g94
g185
tp858
g5
(g6
(I0
tS'b'
tRp859
(I1
(tg9
I00
S"\xff?'\xc1"
tbs(g15
g71
tp860
g5
(g6
(I0
tS'b'
tRp861
(I1
(tg9
I00
S'\x14m\xa7@'
tbs(g143
g174
tp862
g5
(g6
(I0
tS'b'
tRp863
(I1
(tg9
I00
S'\xd1\xccIA'
tbs(g234
g129
tp864
g5
(g6
(I0
tS'b'
tRp865
(I1
(tg9
I00
S'P\xdaB\xc1'
tbs(g95
g10
tp866
g5
(g6
(I0
tS'b'
tRp867
(I1
(tg9
I00
S'@\xa0\xe1@'
tbs(g71
g10
tp868
g5
(g6
(I0
tS'b'
tRp869
(I1
(tg9
I00
S'\x1f\x8c\x03A'
tbs(g180
g56
tp870
g5
(g6
(I0
tS'b'
tRp871
(I1
(tg9
I00
S';\x04\xa0\xc0'
tbs(g2
g38
tp872
g5
(g6
(I0
tS'b'
tRp873
(I1
(tg9
I00
S'K\xf4\x1e\xc1'
tbs(g44
g11
tp874
g5
(g6
(I0
tS'b'
tRp875
(I1
(tg9
I00
S'\xdd\xdcQ\xc1'
tbs(g37
g197
tp876
g5
(g6
(I0
tS'b'
tRp877
(I1
(tg9
I00
S'\x80\xe2>\xc1'
tbs(g116
g70
tp878
g5
(g6
(I0
tS'b'
tRp879
(I1
(tg9
I00
S'{\x04\x0f\xc1'
tbs(g75
g143
tp880
g5
(g6
(I0
tS'b'
tRp881
(I1
(tg9
I00
S'\xef)\x9e@'
tbs(g95
g71
tp882
g5
(g6
(I0
tS'b'
tRp883
(I1
(tg9
I00
S'H_$\xc0'
tbs(g48
g359
tp884
g5
(g6
(I0
tS'b'
tRp885
(I1
(tg9
I00
S'\x85n\x86\xc1'
tbs(g74
g41
tp886
g5
(g6
(I0
tS'b'
tRp887
(I1
(tg9
I00
S'\x152\x15@'
tbs(g166
g26
tp888
g5
(g6
(I0
tS'b'
tRp889
(I1
(tg9
I00
S'\x1e\x96\x98\xc0'
tbs(g41
g19
tp890
g5
(g6
(I0
tS'b'
tRp891
(I1
(tg9
I00
S'\xeed\xc0\xc0'
tbs(g116
g33
tp892
g5
(g6
(I0
tS'b'
tRp893
(I1
(tg9
I00
S'\xe9\xb0\xe5\xc0'
tbs(g261
g152
tp894
g5
(g6
(I0
tS'b'
tRp895
(I1
(tg9
I00
S'\xb3L??'
tbs(g3
g143
tp896
g5
(g6
(I0
tS'b'
tRp897
(I1
(tg9
I00
S'\xfe\xa6\xb2\xc0'
tbs(g105
g359
tp898
g5
(g6
(I0
tS'b'
tRp899
(I1
(tg9
I00
S'Az7\xc1'
tbs(g48
g100
tp900
g5
(g6
(I0
tS'b'
tRp901
(I1
(tg9
I00
S'c\xd6@\xc1'
tbs(g359
g173
tp902
g5
(g6
(I0
tS'b'
tRp903
(I1
(tg9
I00
S'\xe9]\xa1A'
tbs(g100
g26
tp904
g5
(g6
(I0
tS'b'
tRp905
(I1
(tg9
I00
S'r\t\xa9\xc0'
tbs(g3
g15
tp906
g5
(g6
(I0
tS'b'
tRp907
(I1
(tg9
I00
S'\xd3w\x06\xc0'
tbs(g78
g307
tp908
g5
(g6
(I0
tS'b'
tRp909
(I1
(tg9
I00
S'\x9b\xf2I\xbf'
tbs(g197
g359
tp910
g5
(g6
(I0
tS'b'
tRp911
(I1
(tg9
I00
S'\xbb\xa0I\xc1'
tbs(g261
g71
tp912
g5
(g6
(I0
tS'b'
tRp913
(I1
(tg9
I00
S'\xbb\x90<@'
tbs(g152
g70
tp914
g5
(g6
(I0
tS'b'
tRp915
(I1
(tg9
I00
S'\xa3@/@'
tbs(g81
g30
tp916
g5
(g6
(I0
tS'b'
tRp917
(I1
(tg9
I00
S'\xfb?\x15A'
tbs(g78
g82
tp918
g5
(g6
(I0
tS'b'
tRp919
(I1
(tg9
I00
S'c\xe4\xb9@'
tbs(g234
g152
tp920
g5
(g6
(I0
tS'b'
tRp921
(I1
(tg9
I00
S'6\x91\xad\xc0'
tbs(g22
g129
tp922
g5
(g6
(I0
tS'b'
tRp923
(I1
(tg9
I00
S't\x85\x01\xc0'
tbs(g48
g26
tp924
g5
(g6
(I0
tS'b'
tRp925
(I1
(tg9
I00
S'\xe5&>\xc1'
tbs(g67
g135
tp926
g5
(g6
(I0
tS'b'
tRp927
(I1
(tg9
I00
S'9\x1f\xa6@'
tbs(g105
g30
tp928
g5
(g6
(I0
tS'b'
tRp929
(I1
(tg9
I00
S'(\xc3+A'
tbs(g18
g194
tp930
g5
(g6
(I0
tS'b'
tRp931
(I1
(tg9
I00
S'\xdau\x1eA'
tbs(g74
g26
tp932
g5
(g6
(I0
tS'b'
tRp933
(I1
(tg9
I00
S'\x8aMC\xc1'
tbs(g307
g214
tp934
g5
(g6
(I0
tS'b'
tRp935
(I1
(tg9
I00
S'\xe7\xac\x9a?'
tbs(g67
g177
tp936
g5
(g6
(I0
tS'b'
tRp937
(I1
(tg9
I00
S'\x91\xd9\x87@'
tbs(g29
g26
tp938
g5
(g6
(I0
tS'b'
tRp939
(I1
(tg9
I00
S'\x83;\x84\xc0'
tbs(g25
g219
tp940
g5
(g6
(I0
tS'b'
tRp941
(I1
(tg9
I00
S'\xbdOmA'
tbs(g3
g38
tp942
g5
(g6
(I0
tS'b'
tRp943
(I1
(tg9
I00
S'\x96%\x8c\xbf'
tbs(g61
g180
tp944
g5
(g6
(I0
tS'b'
tRp945
(I1
(tg9
I00
S'7\xbc\xac\xc0'
tbs(g166
g56
tp946
g5
(g6
(I0
tS'b'
tRp947
(I1
(tg9
I00
S'\x8d~\n\xbf'
tbs(g197
g95
tp948
g5
(g6
(I0
tS'b'
tRp949
(I1
(tg9
I00
S'\xbe\x84\x90@'
tbs(g180
g19
tp950
g5
(g6
(I0
tS'b'
tRp951
(I1
(tg9
I00
S'\xf1f\x17@'
tbs(g359
g166
tp952
g5
(g6
(I0
tS'b'
tRp953
(I1
(tg9
I00
S'\xb7\x85DA'
tbs(g359
g71
tp954
g5
(g6
(I0
tS'b'
tRp955
(I1
(tg9
I00
S'\xb9\xa3\x89A'
tbs(g180
g111
tp956
g5
(g6
(I0
tS'b'
tRp957
(I1
(tg9
I00
S'\xa7||\xbf'
tbs(g100
g123
tp958
g5
(g6
(I0
tS'b'
tRp959
(I1
(tg9
I00
S'i}\xd9@'
tbs(g51
g48
tp960
g5
(g6
(I0
tS'b'
tRp961
(I1
(tg9
I00
S'Y\xb0\\A'
tbs(g67
g152
tp962
g5
(g6
(I0
tS'b'
tRp963
(I1
(tg9
I00
S'\x93\xdb\xea@'
tbs(g91
g71
tp964
g5
(g6
(I0
tS'b'
tRp965
(I1
(tg9
I00
S'\xb8r\xf7@'
tbs(g48
g129
tp966
g5
(g6
(I0
tS'b'
tRp967
(I1
(tg9
I00
S'\x0c\x1d\x1f\xc1'
tbs(g81
g10
tp968
g5
(g6
(I0
tS'b'
tRp969
(I1
(tg9
I00
S'\xb9j$A'
tbs(g15
g214
tp970
g5
(g6
(I0
tS'b'
tRp971
(I1
(tg9
I00
S'N\xcd\n?'
tbs(g15
g64
tp972
g5
(g6
(I0
tS'b'
tRp973
(I1
(tg9
I00
S'\xb9`\xfa>'
tbs(g132
g163
tp974
g5
(g6
(I0
tS'b'
tRp975
(I1
(tg9
I00
S'R\xc0\xa2\xc0'
tbs(g15
g123
tp976
g5
(g6
(I0
tS'b'
tRp977
(I1
(tg9
I00
S'\xf3A)@'
tbs(g44
g52
tp978
g5
(g6
(I0
tS'b'
tRp979
(I1
(tg9
I00
S'#R\xf3?'
tbs(g29
g64
tp980
g5
(g6
(I0
tS'b'
tRp981
(I1
(tg9
I00
S'\xe6\x9e\xb0@'
tbs(g67
g166
tp982
g5
(g6
(I0
tS'b'
tRp983
(I1
(tg9
I00
S'!wM@'
tbs(g25
g15
tp984
g5
(g6
(I0
tS'b'
tRp985
(I1
(tg9
I00
S'&\xe1\xe2@'
tbs(g48
g180
tp986
g5
(g6
(I0
tS'b'
tRp987
(I1
(tg9
I00
S'\xf9\xf6P\xc0'
tbs(g152
g15
tp988
g5
(g6
(I0
tS'b'
tRp989
(I1
(tg9
I00
S'\xf8\x7f\x0e@'
tbs(g91
g332
tp990
g5
(g6
(I0
tS'b'
tRp991
(I1
(tg9
I00
S'#\xae\x16A'
tbs(g75
g100
tp992
g5
(g6
(I0
tS'b'
tRp993
(I1
(tg9
I00
S'n\xfe\xc9@'
tbs(g48
g70
tp994
g5
(g6
(I0
tS'b'
tRp995
(I1
(tg9
I00
S'K\xd6\x1e\xbe'
tbs(g41
g166
tp996
g5
(g6
(I0
tS'b'
tRp997
(I1
(tg9
I00
S'\xac\x93T\xc1'
tbs(g152
g14
tp998
g5
(g6
(I0
tS'b'
tRp999
(I1
(tg9
I00
S'\x17^n\xc0'
tbs(g132
g307
tp1000
g5
(g6
(I0
tS'b'
tRp1001
(I1
(tg9
I00
S'#\xe9\x04\xbe'
tbs(g29
g180
tp1002
g5
(g6
(I0
tS'b'
tRp1003
(I1
(tg9
I00
S'\xe7\xb3\x12A'
tbs(g135
g180
tp1004
g5
(g6
(I0
tS'b'
tRp1005
(I1
(tg9
I00
S'b\x06\xc3@'
tbs(g177
g194
tp1006
g5
(g6
(I0
tS'b'
tRp1007
(I1
(tg9
I00
S'\xb0\xad\xba@'
tbs(g94
g132
tp1008
g5
(g6
(I0
tS'b'
tRp1009
(I1
(tg9
I00
S'{F<\xc0'
tbs(g152
g33
tp1010
g5
(g6
(I0
tS'b'
tRp1011
(I1
(tg9
I00
S'\xd0\xa2\xde@'
tbs(g56
g10
tp1012
g5
(g6
(I0
tS'b'
tRp1013
(I1
(tg9
I00
S'\x83\xb4\x91A'
tbs(g19
g71
tp1014
g5
(g6
(I0
tS'b'
tRp1015
(I1
(tg9
I00
S'Eh`?'
tbs(g2
g37
tp1016
g5
(g6
(I0
tS'b'
tRp1017
(I1
(tg9
I00
S'\xb4\xa5\xc4@'
tbs(g51
g33
tp1018
g5
(g6
(I0
tS'b'
tRp1019
(I1
(tg9
I00
S'u>4A'
tbs(g38
g91
tp1020
g5
(g6
(I0
tS'b'
tRp1021
(I1
(tg9
I00
S'\x98n\xd6\xc0'
tbs(g51
g163
tp1022
g5
(g6
(I0
tS'b'
tRp1023
(I1
(tg9
I00
S'\x98Y\xb0@'
tbs(g2
g116
tp1024
g5
(g6
(I0
tS'b'
tRp1025
(I1
(tg9
I00
S'\xdf\x87\xd9\xbf'
tbs(g41
g111
tp1026
g5
(g6
(I0
tS'b'
tRp1027
(I1
(tg9
I00
S'\x1b\xa0&\xc1'
tbs(g129
g307
tp1028
g5
(g6
(I0
tS'b'
tRp1029
(I1
(tg9
I00
S'\xfd\x9c\x12@'
tbs(g41
g123
tp1030
g5
(g6
(I0
tS'b'
tRp1031
(I1
(tg9
I00
S'\xe26\xa5\xc0'
tbs(g110
g135
tp1032
g5
(g6
(I0
tS'b'
tRp1033
(I1
(tg9
I00
S'\x8dA@\xc0'
tbs(g94
g19
tp1034
g5
(g6
(I0
tS'b'
tRp1035
(I1
(tg9
I00
S'1:\xe4\xbf'
tbs(g140
g180
tp1036
g5
(g6
(I0
tS'b'
tRp1037
(I1
(tg9
I00
S'|\x0b\xad@'
tbs(g180
g100
tp1038
g5
(g6
(I0
tS'b'
tRp1039
(I1
(tg9
I00
S'\xb4\xf5\xc8\xc0'
tbs(g219
g307
tp1040
g5
(g6
(I0
tS'b'
tRp1041
(I1
(tg9
I00
S'7\x0c?\xc1'
tbs(g48
g19
tp1042
g5
(g6
(I0
tS'b'
tRp1043
(I1
(tg9
I00
S'\xea\xdaW\xc0'
tbs(g22
g143
tp1044
g5
(g6
(I0
tS'b'
tRp1045
(I1
(tg9
I00
S'\xc3\xc7;?'
tbs(g261
g359
tp1046
g5
(g6
(I0
tS'b'
tRp1047
(I1
(tg9
I00
S'9,|\xc1'
tbs(g18
g332
tp1048
g5
(g6
(I0
tS'b'
tRp1049
(I1
(tg9
I00
S'\x19-\x1bA'
tbs(g100
g33
tp1050
g5
(g6
(I0
tS'b'
tRp1051
(I1
(tg9
I00
S'{\xc8\x19A'
tbs(g51
g19
tp1052
g5
(g6
(I0
tS'b'
tRp1053
(I1
(tg9
I00
S'\xcc\x85\x15A'
tbs(g29
g214
tp1054
g5
(g6
(I0
tS'b'
tRp1055
(I1
(tg9
I00
S'\x00%\x94@'
tbs(g74
g332
tp1056
g5
(g6
(I0
tS'b'
tRp1057
(I1
(tg9
I00
S'\xdd\x82\xdc\xbe'
tbs(g22
g14
tp1058
g5
(g6
(I0
tS'b'
tRp1059
(I1
(tg9
I00
S'F\x0e+>'
tbs(g180
g55
tp1060
g5
(g6
(I0
tS'b'
tRp1061
(I1
(tg9
I00
S'ut\x0b\xc1'
tbs(g100
g56
tp1062
g5
(g6
(I0
tS'b'
tRp1063
(I1
(tg9
I00
S'\xc3NZ\xc0'
tbs(g197
g219
tp1064
g5
(g6
(I0
tS'b'
tRp1065
(I1
(tg9
I00
S'\xea\xb9\xd5@'
tbs(g75
g14
tp1066
g5
(g6
(I0
tS'b'
tRp1067
(I1
(tg9
I00
S'\xa6/\x9e@'
tbs(g44
g143
tp1068
g5
(g6
(I0
tS'b'
tRp1069
(I1
(tg9
I00
S'\xc2\xff\xeb\xc0'
tbs(g75
g55
tp1070
g5
(g6
(I0
tS'b'
tRp1071
(I1
(tg9
I00
S'\x9e\xd4\xa2>'
tbs(g110
g55
tp1072
g5
(g6
(I0
tS'b'
tRp1073
(I1
(tg9
I00
S'\xc9O\x00\xc1'
tbs(g234
g307
tp1074
g5
(g6
(I0
tS'b'
tRp1075
(I1
(tg9
I00
S'\xcf\x02\xc8\xc0'
tbs(g94
g52
tp1076
g5
(g6
(I0
tS'b'
tRp1077
(I1
(tg9
I00
S'\x06\x8a\xc9?'
tbs(g25
g44
tp1078
g5
(g6
(I0
tS'b'
tRp1079
(I1
(tg9
I00
S'\xa3Y5A'
tbs(g26
g214
tp1080
g5
(g6
(I0
tS'b'
tRp1081
(I1
(tg9
I00
S'\x88\xb1 A'
tbs(g61
g74
tp1082
g5
(g6
(I0
tS'b'
tRp1083
(I1
(tg9
I00
S'\x91Q\x91\xc0'
tbs(g52
g91
tp1084
g5
(g6
(I0
tS'b'
tRp1085
(I1
(tg9
I00
S'\xdb\xb4\x0e\xc1'
tbs(g234
g185
tp1086
g5
(g6
(I0
tS'b'
tRp1087
(I1
(tg9
I00
S'_\xfeT\xc1'
tbs(g22
g41
tp1088
g5
(g6
(I0
tS'b'
tRp1089
(I1
(tg9
I00
S'<\xe2\xd3@'
tbs(g56
g45
tp1090
g5
(g6
(I0
tS'b'
tRp1091
(I1
(tg9
I00
S'6\xd7\x05A'
tbs(g163
g78
tp1092
g5
(g6
(I0
tS'b'
tRp1093
(I1
(tg9
I00
S'\x9f|}?'
tbs(g135
g100
tp1094
g5
(g6
(I0
tS'b'
tRp1095
(I1
(tg9
I00
S'\x05\xcf @'
tbs(g219
g166
tp1096
g5
(g6
(I0
tS'b'
tRp1097
(I1
(tg9
I00
S'\x03\r\x80\xc1'
tbs(g177
g11
tp1098
g5
(g6
(I0
tS'b'
tRp1099
(I1
(tg9
I00
S'\x7f\xe1-\xc1'
tbs(g30
g33
tp1100
g5
(g6
(I0
tS'b'
tRp1101
(I1
(tg9
I00
S'\xba\x9a\xba\xc0'
tbs(g25
g214
tp1102
g5
(g6
(I0
tS'b'
tRp1103
(I1
(tg9
I00
S'\xa0-\xb7@'
tbs(g197
g100
tp1104
g5
(g6
(I0
tS'b'
tRp1105
(I1
(tg9
I00
S'\xdf\x06\xc5\xbf'
tbs(g234
g14
tp1106
g5
(g6
(I0
tS'b'
tRp1107
(I1
(tg9
I00
S'e\x16)\xc1'
tbs(g123
g11
tp1108
g5
(g6
(I0
tS'b'
tRp1109
(I1
(tg9
I00
S'CkH\xc1'
tbs(g94
g14
tp1110
g5
(g6
(I0
tS'b'
tRp1111
(I1
(tg9
I00
S'(\x92\xcd\xc0'
tbs(g19
g123
tp1112
g5
(g6
(I0
tS'b'
tRp1113
(I1
(tg9
I00
S'\x14\xcb\xba\xbe'
tbs(g10
g332
tp1114
g5
(g6
(I0
tS'b'
tRp1115
(I1
(tg9
I00
S'mo\xc4\xc0'
tbs(g126
g71
tp1116
g5
(g6
(I0
tS'b'
tRp1117
(I1
(tg9
I00
S'\xc7J/@'
tbs(g219
g174
tp1118
g5
(g6
(I0
tS'b'
tRp1119
(I1
(tg9
I00
S'J\xe9\xc0\xc0'
tbs(g261
g29
tp1120
g5
(g6
(I0
tS'b'
tRp1121
(I1
(tg9
I00
S'%\x8b\x00\xc1'
tbs(g55
g52
tp1122
g5
(g6
(I0
tS'b'
tRp1123
(I1
(tg9
I00
S'\xabGZA'
tbs(g94
g22
tp1124
g5
(g6
(I0
tS'b'
tRp1125
(I1
(tg9
I00
S'\xa7\xe3\xe0\xbf'
tbs(g75
g173
tp1126
g5
(g6
(I0
tS'b'
tRp1127
(I1
(tg9
I00
S'\xdd\xacAA'
tbs(g116
g143
tp1128
g5
(g6
(I0
tS'b'
tRp1129
(I1
(tg9
I00
S'\x02M|\xc1'
tbs(g64
g123
tp1130
g5
(g6
(I0
tS'b'
tRp1131
(I1
(tg9
I00
S'\x1bb\x1c\xc0'
tbs(g67
g3
tp1132
g5
(g6
(I0
tS'b'
tRp1133
(I1
(tg9
I00
S'8\xf3\xa0@'
tbs(g135
g173
tp1134
g5
(g6
(I0
tS'b'
tRp1135
(I1
(tg9
I00
S'\xb5\xed\x01A'
tbs(g22
g52
tp1136
g5
(g6
(I0
tS'b'
tRp1137
(I1
(tg9
I00
S'N\x1d\xd5@'
tbs(g30
g15
tp1138
g5
(g6
(I0
tS'b'
tRp1139
(I1
(tg9
I00
S"\x94\x9b'\xc1"
tbs(g261
g33
tp1140
g5
(g6
(I0
tS'b'
tRp1141
(I1
(tg9
I00
S'\x8a[\xec@'
tbs(g163
g38
tp1142
g5
(g6
(I0
tS'b'
tRp1143
(I1
(tg9
I00
S'\xc0i\xbb@'
tbs(g2
g174
tp1144
g5
(g6
(I0
tS'b'
tRp1145
(I1
(tg9
I00
S'\xce\xd3,\xc0'
tbs(g29
g52
tp1146
g5
(g6
(I0
tS'b'
tRp1147
(I1
(tg9
I00
S'4\xc7CA'
tbs(g30
g100
tp1148
g5
(g6
(I0
tS'b'
tRp1149
(I1
(tg9
I00
S'\xebV\x8a\xc1'
tbs(g64
g95
tp1150
g5
(g6
(I0
tS'b'
tRp1151
(I1
(tg9
I00
S'\xbe\x12\x00\xc0'
tbs(g261
g163
tp1152
g5
(g6
(I0
tS'b'
tRp1153
(I1
(tg9
I00
S'\xd2 \xcf\xc0'
tbs(g22
g116
tp1154
g5
(g6
(I0
tS'b'
tRp1155
(I1
(tg9
I00
S'\t\xac\x19A'
tbs(g55
g332
tp1156
g5
(g6
(I0
tS'b'
tRp1157
(I1
(tg9
I00
S'\x8c\x90nA'
tbs(g185
g82
tp1158
g5
(g6
(I0
tS'b'
tRp1159
(I1
(tg9
I00
S'\xe7U(A'
tbs(g75
g174
tp1160
g5
(g6
(I0
tS'b'
tRp1161
(I1
(tg9
I00
S'\xc6i\x94A'
tbs(g140
g91
tp1162
g5
(g6
(I0
tS'b'
tRp1163
(I1
(tg9
I00
S'p\xe1\xe3\xbf'
tbs(g197
g180
tp1164
g5
(g6
(I0
tS'b'
tRp1165
(I1
(tg9
I00
S'\xeb6\x80\xbf'
tbs(g166
g123
tp1166
g5
(g6
(I0
tS'b'
tRp1167
(I1
(tg9
I00
S'\xbdY\xbe@'
tbs(g129
g296
tp1168
g5
(g6
(I0
tS'b'
tRp1169
(I1
(tg9
I00
S'.*\xc7@'
tbs(g37
g185
tp1170
g5
(g6
(I0
tS'b'
tRp1171
(I1
(tg9
I00
S'&3\x8e\xc1'
tbs(g41
g78
tp1172
g5
(g6
(I0
tS'b'
tRp1173
(I1
(tg9
I00
S'"V,\xc1'
tbs(g64
g71
tp1174
g5
(g6
(I0
tS'b'
tRp1175
(I1
(tg9
I00
S'\xe4\x8dA@'
tbs(g261
g74
tp1176
g5
(g6
(I0
tS'b'
tRp1177
(I1
(tg9
I00
S'\x87\x1d\xa3?'
tbs(g129
g38
tp1178
g5
(g6
(I0
tS'b'
tRp1179
(I1
(tg9
I00
S'?\xb82@'
tbs(g197
g11
tp1180
g5
(g6
(I0
tS'b'
tRp1181
(I1
(tg9
I00
S']c$\xc1'
tbs(g51
g166
tp1182
g5
(g6
(I0
tS'b'
tRp1183
(I1
(tg9
I00
S'\xc2\x1a\xe2@'
tbs(g29
g48
tp1184
g5
(g6
(I0
tS'b'
tRp1185
(I1
(tg9
I00
S'\x97kLA'
tbs(g18
g100
tp1186
g5
(g6
(I0
tS'b'
tRp1187
(I1
(tg9
I00
S'\xe7_#\xc0'
tbs(g3
g44
tp1188
g5
(g6
(I0
tS'b'
tRp1189
(I1
(tg9
I00
S'yzM@'
tbs(g152
g173
tp1190
g5
(g6
(I0
tS'b'
tRp1191
(I1
(tg9
I00
S"\x81'v?"
tbs(g152
g74
tp1192
g5
(g6
(I0
tS'b'
tRp1193
(I1
(tg9
I00
S'\x8b\xfbX@'
tbs(g261
g116
tp1194
g5
(g6
(I0
tS'b'
tRp1195
(I1
(tg9
I00
S'\xb8\xea\x0cA'
tbs(g44
g332
tp1196
g5
(g6
(I0
tS'b'
tRp1197
(I1
(tg9
I00
S'\rD\x94\xbf'
tbs(g152
g52
tp1198
g5
(g6
(I0
tS'b'
tRp1199
(I1
(tg9
I00
S'fS\xa1@'
tbs(g45
g174
tp1200
g5
(g6
(I0
tS'b'
tRp1201
(I1
(tg9
I00
S'3\xe8v@'
tbs(g70
g26
tp1202
g5
(g6
(I0
tS'b'
tRp1203
(I1
(tg9
I00
S'\xf6\xd1\xe4\xc0'
tbs(g25
g143
tp1204
g5
(g6
(I0
tS'b'
tRp1205
(I1
(tg9
I00
S'<3\x80@'
tbs(g67
g22
tp1206
g5
(g6
(I0
tS'b'
tRp1207
(I1
(tg9
I00
S'AC\xea@'
tbs(g185
g19
tp1208
g5
(g6
(I0
tS'b'
tRp1209
(I1
(tg9
I00
S'\x15\x84+A'
tbs(g67
g174
tp1210
g5
(g6
(I0
tS'b'
tRp1211
(I1
(tg9
I00
S'\xe4\xb4\x87A'
tbs(g152
g116
tp1212
g5
(g6
(I0
tS'b'
tRp1213
(I1
(tg9
I00
S'_Q&A'
tbs(g61
g30
tp1214
g5
(g6
(I0
tS'b'
tRp1215
(I1
(tg9
I00
S'\x90\xe7\x9b@'
tbs(g15
g163
tp1216
g5
(g6
(I0
tS'b'
tRp1217
(I1
(tg9
I00
S'\xe20\xe9\xc0'
tbs(g18
g214
tp1218
g5
(g6
(I0
tS'b'
tRp1219
(I1
(tg9
I00
S'\xdd\x07d@'
tbs(g166
g52
tp1220
g5
(g6
(I0
tS'b'
tRp1221
(I1
(tg9
I00
S'w/\xec@'
tbs(g135
g219
tp1222
g5
(g6
(I0
tS'b'
tRp1223
(I1
(tg9
I00
S'\x92ogA'
tbs(g11
g332
tp1224
g5
(g6
(I0
tS'b'
tRp1225
(I1
(tg9
I00
S'?\x92eA'
tbs(g22
g91
tp1226
g5
(g6
(I0
tS'b'
tRp1227
(I1
(tg9
I00
S'\xc5\x9dO\xc0'
tbs(g140
g82
tp1228
g5
(g6
(I0
tS'b'
tRp1229
(I1
(tg9
I00
S'\xf8\xd1>A'
tbs(g152
g166
tp1230
g5
(g6
(I0
tS'b'
tRp1231
(I1
(tg9
I00
S'\xd4T\xd2?'
tbs(g135
g214
tp1232
g5
(g6
(I0
tS'b'
tRp1233
(I1
(tg9
I00
S'\x9f\xe8y@'
tbs(g44
g71
tp1234
g5
(g6
(I0
tS'b'
tRp1235
(I1
(tg9
I00
S'#\x02>?'
tbs(g61
g100
tp1236
g5
(g6
(I0
tS'b'
tRp1237
(I1
(tg9
I00
S'_\xf2%\xc1'
tbs(g41
g116
tp1238
g5
(g6
(I0
tS'b'
tRp1239
(I1
(tg9
I00
S'%\xe1\xf2?'
tbs(g41
g143
tp1240
g5
(g6
(I0
tS'b'
tRp1241
(I1
(tg9
I00
S'\xe3\x1a>\xc1'
tbs(g261
g25
tp1242
g5
(g6
(I0
tS'b'
tRp1243
(I1
(tg9
I00
S'\xa2\x06)\xc1'
tbs(g11
g82
tp1244
g5
(g6
(I0
tS'b'
tRp1245
(I1
(tg9
I00
S'Z\x90\x80A'
tbs(g132
g10
tp1246
g5
(g6
(I0
tS'b'
tRp1247
(I1
(tg9
I00
S'_\xbe\x81A'
tbs(g126
g41
tp1248
g5
(g6
(I0
tS'b'
tRp1249
(I1
(tg9
I00
S'\xae\xb6\xb9@'
tbs(g234
g37
tp1250
g5
(g6
(I0
tS'b'
tRp1251
(I1
(tg9
I00
S'4\xf7\xf8@'
tbs(g3
g180
tp1252
g5
(g6
(I0
tS'b'
tRp1253
(I1
(tg9
I00
S'/\xce\x94\xc0'
tbs(g25
g111
tp1254
g5
(g6
(I0
tS'b'
tRp1255
(I1
(tg9
I00
S'R\x81\xc6@'
tbs(g67
g194
tp1256
g5
(g6
(I0
tS'b'
tRp1257
(I1
(tg9
I00
S'\xb9\xb4<A'
tbs(g67
g56
tp1258
g5
(g6
(I0
tS'b'
tRp1259
(I1
(tg9
I00
S'\xcc_\x84@'
tbs(g261
g70
tp1260
g5
(g6
(I0
tS'b'
tRp1261
(I1
(tg9
I00
S'rV\xda@'
tbs(g74
g34
tp1262
g5
(g6
(I0
tS'b'
tRp1263
(I1
(tg9
I00
S'\xd4\xa0K\xc1'
tbs(g110
g64
tp1264
g5
(g6
(I0
tS'b'
tRp1265
(I1
(tg9
I00
S'\xd3T\xa1?'
tbs(g11
g45
tp1266
g5
(g6
(I0
tS'b'
tRp1267
(I1
(tg9
I00
S'f\xeaZA'
tbs(g51
g296
tp1268
g5
(g6
(I0
tS'b'
tRp1269
(I1
(tg9
I00
S'\x11)+A'
tbs(g132
g332
tp1270
g5
(g6
(I0
tS'b'
tRp1271
(I1
(tg9
I00
S'K4\x01A'
tbs(g152
g296
tp1272
g5
(g6
(I0
tS'b'
tRp1273
(I1
(tg9
I00
S'\xdee\xb4@'
tbs(g14
g359
tp1274
g5
(g6
(I0
tS'b'
tRp1275
(I1
(tg9
I00
S'U\x95\xff\xc0'
tbs(g81
g64
tp1276
g5
(g6
(I0
tS'b'
tRp1277
(I1
(tg9
I00
S'W\x17 \xc0'
tbs(g51
g126
tp1278
g5
(g6
(I0
tS'b'
tRp1279
(I1
(tg9
I00
S'\x7f\xb0@A'
tbs(g61
g110
tp1280
g5
(g6
(I0
tS'b'
tRp1281
(I1
(tg9
I00
S'm\xe5\xde\xc0'
tbs(g25
g78
tp1282
g5
(g6
(I0
tS'b'
tRp1283
(I1
(tg9
I00
S'\xba!;@'
tbs(g129
g173
tp1284
g5
(g6
(I0
tS'b'
tRp1285
(I1
(tg9
I00
S'C\x87g@'
tbs(g81
g52
tp1286
g5
(g6
(I0
tS'b'
tRp1287
(I1
(tg9
I00
S'H\xb0\xb7\xbe'
tbs(g37
g82
tp1288
g5
(g6
(I0
tS'b'
tRp1289
(I1
(tg9
I00
S'\xcc\x858\xc1'
tbs(g26
g111
tp1290
g5
(g6
(I0
tS'b'
tRp1291
(I1
(tg9
I00
S'B\xbf\xce@'
tbs(g140
g111
tp1292
g5
(g6
(I0
tS'b'
tRp1293
(I1
(tg9
I00
S'\xbe$\xa5@'
tbs(g143
g11
tp1294
g5
(g6
(I0
tS'b'
tRp1295
(I1
(tg9
I00
S'J\xb9\xde\xc0'
tbs(g135
g38
tp1296
g5
(g6
(I0
tS'b'
tRp1297
(I1
(tg9
I00
S'\xd2+\xb6@'
tbs(g61
g185
tp1298
g5
(g6
(I0
tS'b'
tRp1299
(I1
(tg9
I00
S'\x07.P\xc1'
tbs(g22
g166
tp1300
g5
(g6
(I0
tS'b'
tRp1301
(I1
(tg9
I00
S'v\x9eF='
tbs(g94
g129
tp1302
g5
(g6
(I0
tS'b'
tRp1303
(I1
(tg9
I00
S'\x9d()\xc1'
tbs(g33
g91
tp1304
g5
(g6
(I0
tS'b'
tRp1305
(I1
(tg9
I00
S'\x15\x9f\x12\xc1'
tbs(g296
g70
tp1306
g5
(g6
(I0
tS'b'
tRp1307
(I1
(tg9
I00
S'\r\n\xda\xbf'
tbs(g163
g95
tp1308
g5
(g6
(I0
tS'b'
tRp1309
(I1
(tg9
I00
S'\xd7eBA'
tbs(g95
g91
tp1310
g5
(g6
(I0
tS'b'
tRp1311
(I1
(tg9
I00
S'Nrp\xc1'
tbs(g94
g74
tp1312
g5
(g6
(I0
tS'b'
tRp1313
(I1
(tg9
I00
S'J\x81[\xc0'
tbs(g55
g10
tp1314
g5
(g6
(I0
tS'b'
tRp1315
(I1
(tg9
I00
S'@\xb8\xabA'
tbs(g110
g126
tp1316
g5
(g6
(I0
tS'b'
tRp1317
(I1
(tg9
I00
S'\xba\xdd\xb2@'
tbs(g177
g91
tp1318
g5
(g6
(I0
tS'b'
tRp1319
(I1
(tg9
I00
S'+)\xcd\xc0'
tbs(g18
g307
tp1320
g5
(g6
(I0
tS'b'
tRp1321
(I1
(tg9
I00
S'\xc3\x03^@'
tbs(g52
g123
tp1322
g5
(g6
(I0
tS'b'
tRp1323
(I1
(tg9
I00
S'\xf9\x8f\xa8\xc0'
tbs(g110
g11
tp1324
g5
(g6
(I0
tS'b'
tRp1325
(I1
(tg9
I00
S'H\x07\xee\xc0'
tbs(g166
g11
tp1326
g5
(g6
(I0
tS'b'
tRp1327
(I1
(tg9
I00
S'\xf5\x8e\xfa\xc0'
tbs(g110
g296
tp1328
g5
(g6
(I0
tS'b'
tRp1329
(I1
(tg9
I00
S'\x8a\xec.A'
tbs(g75
g296
tp1330
g5
(g6
(I0
tS'b'
tRp1331
(I1
(tg9
I00
S'"*qA'
tbs(g61
g67
tp1332
g5
(g6
(I0
tS'b'
tRp1333
(I1
(tg9
I00
S'\xbeK\x8a\xc1'
tbs(g219
g332
tp1334
g5
(g6
(I0
tS'b'
tRp1335
(I1
(tg9
I00
S'J):\xc1'
tbs(g75
g185
tp1336
g5
(g6
(I0
tS'b'
tRp1337
(I1
(tg9
I00
S'l\xd0*\xc0'
tbs(g261
g132
tp1338
g5
(g6
(I0
tS'b'
tRp1339
(I1
(tg9
I00
S'r\x1cB\xc0'
tbs(g61
g44
tp1340
g5
(g6
(I0
tS'b'
tRp1341
(I1
(tg9
I00
S'Q\x9a/\xc0'
tbs(g197
g48
tp1342
g5
(g6
(I0
tS'b'
tRp1343
(I1
(tg9
I00
S'\x8d\xf4\x81@'
tbs(g38
g332
tp1344
g5
(g6
(I0
tS'b'
tRp1345
(I1
(tg9
I00
S'\xa7y\xb8@'
tbs(g51
g359
tp1346
g5
(g6
(I0
tS'b'
tRp1347
(I1
(tg9
I00
S'\x14O\xb0\xc0'
tbs(g2
g33
tp1348
g5
(g6
(I0
tS'b'
tRp1349
(I1
(tg9
I00
S'\t3\x8c\xc0'
tbs(g41
g214
tp1350
g5
(g6
(I0
tS'b'
tRp1351
(I1
(tg9
I00
S'\x14R(\xc1'
tbs(g37
g307
tp1352
g5
(g6
(I0
tS'b'
tRp1353
(I1
(tg9
I00
S'\xb5G{\xc1'
tbs(g64
g52
tp1354
g5
(g6
(I0
tS'b'
tRp1355
(I1
(tg9
I00
S'\r\xda\x17@'
tbs(g180
g33
tp1356
g5
(g6
(I0
tS'b'
tRp1357
(I1
(tg9
I00
S'\x99/\xcc@'
tbs(g152
g359
tp1358
g5
(g6
(I0
tS'b'
tRp1359
(I1
(tg9
I00
S'\xc2\x81D\xc1'
tbs(g140
g67
tp1360
g5
(g6
(I0
tS'b'
tRp1361
(I1
(tg9
I00
S'\x04J\xa1\xc0'
tbs(g94
g15
tp1362
g5
(g6
(I0
tS'b'
tRp1363
(I1
(tg9
I00
S'P\xa0=\xc0'
tbs(g197
g10
tp1364
g5
(g6
(I0
tS'b'
tRp1365
(I1
(tg9
I00
S'\xf8M\x02A'
tbs(g126
g37
tp1366
g5
(g6
(I0
tS'b'
tRp1367
(I1
(tg9
I00
S'\x0f\xb5UA'
tbs(g194
g74
tp1368
g5
(g6
(I0
tS'b'
tRp1369
(I1
(tg9
I00
S'\xdd\xaa\xb9\xbf'
tbs(g18
g45
tp1370
g5
(g6
(I0
tS'b'
tRp1371
(I1
(tg9
I00
S'\t\x9c"A'
tbs(g52
g10
tp1372
g5
(g6
(I0
tS'b'
tRp1373
(I1
(tg9
I00
S'Y]\x04A'
tbs(g116
g82
tp1374
g5
(g6
(I0
tS'b'
tRp1375
(I1
(tg9
I00
S'\xdc\xed\x83\xc0'
tbs(g166
g64
tp1376
g5
(g6
(I0
tS'b'
tRp1377
(I1
(tg9
I00
S'\x0f\x1c\x8a@'
tbs(g140
g296
tp1378
g5
(g6
(I0
tS'b'
tRp1379
(I1
(tg9
I00
S'\x1f\xc9%A'
tbs(g194
g116
tp1380
g5
(g6
(I0
tS'b'
tRp1381
(I1
(tg9
I00
S'y\xa8v@'
tbs(g173
g11
tp1382
g5
(g6
(I0
tS'b'
tRp1383
(I1
(tg9
I00
S'0\xebS\xc1'
tbs(g95
g52
tp1384
g5
(g6
(I0
tS'b'
tRp1385
(I1
(tg9
I00
S'\x97f\xdd\xbf'
tbs(g143
g34
tp1386
g5
(g6
(I0
tS'b'
tRp1387
(I1
(tg9
I00
S'\x03\x042\xc1'
tbs(g81
g78
tp1388
g5
(g6
(I0
tS'b'
tRp1389
(I1
(tg9
I00
S'\xda\xb3\x00\xc1'
tbs(g61
g34
tp1390
g5
(g6
(I0
tS'b'
tRp1391
(I1
(tg9
I00
S'\x1c\xdfS\xc1'
tbs(g234
g44
tp1392
g5
(g6
(I0
tS'b'
tRp1393
(I1
(tg9
I00
S'}\x1a\x9d\xbf'
tbs(g22
g30
tp1394
g5
(g6
(I0
tS'b'
tRp1395
(I1
(tg9
I00
S';\xde*A'
tbs(g94
g307
tp1396
g5
(g6
(I0
tS'b'
tRp1397
(I1
(tg9
I00
S"'\x19\x82\xc0"
tbs(g37
g45
tp1398
g5
(g6
(I0
tS'b'
tRp1399
(I1
(tg9
I00
S'\x82\x17\x04\xc1'
tbs(g48
g38
tp1400
g5
(g6
(I0
tS'b'
tRp1401
(I1
(tg9
I00
S'\xb8\x94"\xc0'
tbs(g78
g33
tp1402
g5
(g6
(I0
tS'b'
tRp1403
(I1
(tg9
I00
S"\x83'E@"
tbs(g29
g95
tp1404
g5
(g6
(I0
tS'b'
tRp1405
(I1
(tg9
I00
S'5C\x83A'
tbs(g296
g71
tp1406
g5
(g6
(I0
tS'b'
tRp1407
(I1
(tg9
I00
S'\n-\x12@'
tbs(g30
g129
tp1408
g5
(g6
(I0
tS'b'
tRp1409
(I1
(tg9
I00
S'\xd2\xd2\x8e\xc1'
tbs(g14
g116
tp1410
g5
(g6
(I0
tS'b'
tRp1411
(I1
(tg9
I00
S'\xa3\xfc{A'
tbs(g18
g219
tp1412
g5
(g6
(I0
tS'b'
tRp1413
(I1
(tg9
I00
S"'\xa8gA"
tbs(g41
g34
tp1414
g5
(g6
(I0
tS'b'
tRp1415
(I1
(tg9
I00
S'\xbe\xdf\x96\xc1'
tbs(g111
g123
tp1416
g5
(g6
(I0
tS'b'
tRp1417
(I1
(tg9
I00
S'\x83\xfaC@'
tbs(g55
g307
tp1418
g5
(g6
(I0
tS'b'
tRp1419
(I1
(tg9
I00
S'^\xb1\xb8@'
tbs(g126
g219
tp1420
g5
(g6
(I0
tS'b'
tRp1421
(I1
(tg9
I00
S'$\xfe\x03A'
tbs(g11
g34
tp1422
g5
(g6
(I0
tS'b'
tRp1423
(I1
(tg9
I00
S'\x96\xe9\xcb?'
tbs(g180
g214
tp1424
g5
(g6
(I0
tS'b'
tRp1425
(I1
(tg9
I00
S'\xc6\xb2\x19\xc0'
tbs(g194
g10
tp1426
g5
(g6
(I0
tS'b'
tRp1427
(I1
(tg9
I00
S'\x08\xc5\xb2@'
tbs(g3
g100
tp1428
g5
(g6
(I0
tS'b'
tRp1429
(I1
(tg9
I00
S'\xf8=\xbf\xc0'
tbs(g143
g214
tp1430
g5
(g6
(I0
tS'b'
tRp1431
(I1
(tg9
I00
S'-I\x13@'
tbs(g359
g214
tp1432
g5
(g6
(I0
tS'b'
tRp1433
(I1
(tg9
I00
S' \x905A'
tbs(g14
g123
tp1434
g5
(g6
(I0
tS'b'
tRp1435
(I1
(tg9
I00
S'\xee\xb0\xe7@'
tbs(g110
g132
tp1436
g5
(g6
(I0
tS'b'
tRp1437
(I1
(tg9
I00
S'\r\xbf\xff?'
tbs(g126
g180
tp1438
g5
(g6
(I0
tS'b'
tRp1439
(I1
(tg9
I00
S'\xc2\t\xc5\xbf'
tbs(g94
g70
tp1440
g5
(g6
(I0
tS'b'
tRp1441
(I1
(tg9
I00
S'\rq\x16@'
tbs(g2
g194
tp1442
g5
(g6
(I0
tS'b'
tRp1443
(I1
(tg9
I00
S'\xd2cz\xc0'
tbs(g219
g296
tp1444
g5
(g6
(I0
tS'b'
tRp1445
(I1
(tg9
I00
S'\xaa\x84:\xc1'
tbs(g194
g332
tp1446
g5
(g6
(I0
tS'b'
tRp1447
(I1
(tg9
I00
S"\x8c'\xdc?"
tbs(g197
g129
tp1448
g5
(g6
(I0
tS'b'
tRp1449
(I1
(tg9
I00
S'\xe7l\xd3\xc0'
tbs(g37
g30
tp1450
g5
(g6
(I0
tS'b'
tRp1451
(I1
(tg9
I00
S'\\\xeb\xa8\xc0'
tbs(g37
g219
tp1452
g5
(g6
(I0
tS'b'
tRp1453
(I1
(tg9
I00
S'\x89d\xb5\xc0'
tbs(g74
g38
tp1454
g5
(g6
(I0
tS'b'
tRp1455
(I1
(tg9
I00
S'T\xc8\xa6\xc0'
tbs(g105
g126
tp1456
g5
(g6
(I0
tS'b'
tRp1457
(I1
(tg9
I00
S'\xfa\x16g@'
tbs(g126
g11
tp1458
g5
(g6
(I0
tS'b'
tRp1459
(I1
(tg9
I00
S'\xc0uf\xc1'
tbs(g61
g174
tp1460
g5
(g6
(I0
tS'b'
tRp1461
(I1
(tg9
I00
S'\xf4\xc64@'
tbs(g219
g185
tp1462
g5
(g6
(I0
tS'b'
tRp1463
(I1
(tg9
I00
S'\xa8*\x8d\xc1'
tbs(g44
g185
tp1464
g5
(g6
(I0
tS'b'
tRp1465
(I1
(tg9
I00
S'W\xa2\x1c\xc1'
tbs(g3
g82
tp1466
g5
(g6
(I0
tS'b'
tRp1467
(I1
(tg9
I00
S'LV\xc0@'
tbs(g10
g34
tp1468
g5
(g6
(I0
tS'b'
tRp1469
(I1
(tg9
I00
S'\x1b\xed\x92\xc1'
tbs(g261
g177
tp1470
g5
(g6
(I0
tS'b'
tRp1471
(I1
(tg9
I00
S'/^\xb5\xc0'
tbs(g33
g214
tp1472
g5
(g6
(I0
tS'b'
tRp1473
(I1
(tg9
I00
S'\x92\xe5\xba\xc0'
tbs(g110
g307
tp1474
g5
(g6
(I0
tS'b'
tRp1475
(I1
(tg9
I00
S'\xdd\x8d\xbc\xbf'
tbs(g110
g129
tp1476
g5
(g6
(I0
tS'b'
tRp1477
(I1
(tg9
I00
S'5\xdf7\xc0'
tbs(g61
g152
tp1478
g5
(g6
(I0
tS'b'
tRp1479
(I1
(tg9
I00
S'\xa1V\x1f\xc1'
tbs(g2
g219
tp1480
g5
(g6
(I0
tS'b'
tRp1481
(I1
(tg9
I00
S'\xff|-@'
tbs(g173
g111
tp1482
g5
(g6
(I0
tS'b'
tRp1483
(I1
(tg9
I00
S')\x9c\xb4\xc0'
tbs(g3
g56
tp1484
g5
(g6
(I0
tS'b'
tRp1485
(I1
(tg9
I00
S'\xc3\x92\xc8\xc0'
tbs(g22
g78
tp1486
g5
(g6
(I0
tS'b'
tRp1487
(I1
(tg9
I00
S'\xa1\x90u\xc0'
tbs(g18
g30
tp1488
g5
(g6
(I0
tS'b'
tRp1489
(I1
(tg9
I00
S'\x0fzmA'
tbs(g143
g173
tp1490
g5
(g6
(I0
tS'b'
tRp1491
(I1
(tg9
I00
S'\x14_\x86@'
tbs(g177
g75
tp1492
g5
(g6
(I0
tS'b'
tRp1493
(I1
(tg9
I00
S'y+*\xc1'
tbs(g51
g234
tp1494
g5
(g6
(I0
tS'b'
tRp1495
(I1
(tg9
I00
S'\x1d\x12XA'
tbs(g177
g214
tp1496
g5
(g6
(I0
tS'b'
tRp1497
(I1
(tg9
I00
S'\xdc4\xa4?'
tbs(g105
g123
tp1498
g5
(g6
(I0
tS'b'
tRp1499
(I1
(tg9
I00
S'=\xc9|@'
tbs(g105
g3
tp1500
g5
(g6
(I0
tS'b'
tRp1501
(I1
(tg9
I00
S'\xea\xaf\x1b>'
tbs(g234
g22
tp1502
g5
(g6
(I0
tS'b'
tRp1503
(I1
(tg9
I00
S'A\x13L\xc0'
tbs(g70
g173
tp1504
g5
(g6
(I0
tS'b'
tRp1505
(I1
(tg9
I00
S'[c\xfc\xbf'
tbs(g197
g44
tp1506
g5
(g6
(I0
tS'b'
tRp1507
(I1
(tg9
I00
S'#=1@'
tbs(g261
g26
tp1508
g5
(g6
(I0
tS'b'
tRp1509
(I1
(tg9
I00
S'o\xc3\x1e\xc1'
tbs(g41
g26
tp1510
g5
(g6
(I0
tS'b'
tRp1511
(I1
(tg9
I00
S'\x95\\a\xc1'
tbs(g135
g44
tp1512
g5
(g6
(I0
tS'b'
tRp1513
(I1
(tg9
I00
S'\xb5\xb3\x12A'
tbs(g94
g234
tp1514
g5
(g6
(I0
tS'b'
tRp1515
(I1
(tg9
I00
S'\xb7\xf5 ?'
tbs(g2
g26
tp1516
g5
(g6
(I0
tS'b'
tRp1517
(I1
(tg9
I00
S'#WY\xc1'
tbs(g51
g30
tp1518
g5
(g6
(I0
tS'b'
tRp1519
(I1
(tg9
I00
S'\xfd\xeapA'
tbs(g194
g70
tp1520
g5
(g6
(I0
tS'b'
tRp1521
(I1
(tg9
I00
S'd\x8d\xd0?'
tbs(g180
g52
tp1522
g5
(g6
(I0
tS'b'
tRp1523
(I1
(tg9
I00
S'^\x87\xa1@'
tbs(g30
g214
tp1524
g5
(g6
(I0
tS'b'
tRp1525
(I1
(tg9
I00
S'Q\xe7J\xc1'
tbs(g29
g10
tp1526
g5
(g6
(I0
tS'b'
tRp1527
(I1
(tg9
I00
S'9\x17\x88A'
tbs(g51
g82
tp1528
g5
(g6
(I0
tS'b'
tRp1529
(I1
(tg9
I00
S'\x1c\xbesA'
tbs(g61
g19
tp1530
g5
(g6
(I0
tS'b'
tRp1531
(I1
(tg9
I00
S'\x0c\xab\xa7\xc0'
tbs(g78
g123
tp1532
g5
(g6
(I0
tS'b'
tRp1533
(I1
(tg9
I00
S'\xa1\xb3(@'
tbs(g219
g34
tp1534
g5
(g6
(I0
tS'b'
tRp1535
(I1
(tg9
I00
S'\xfb$\x8e\xc1'
tbs(g177
g30
tp1536
g5
(g6
(I0
tS'b'
tRp1537
(I1
(tg9
I00
S'\xef*GA'
tbs(g67
g180
tp1538
g5
(g6
(I0
tS'b'
tRp1539
(I1
(tg9
I00
S'Z\x1d\x18A'
tbs(g126
g74
tp1540
g5
(g6
(I0
tS'b'
tRp1541
(I1
(tg9
I00
S'\xdd8Y@'
tbs(g29
g71
tp1542
g5
(g6
(I0
tS'b'
tRp1543
(I1
(tg9
I00
S'%FMA'
tbs(g132
g111
tp1544
g5
(g6
(I0
tS'b'
tRp1545
(I1
(tg9
I00
S'\xf8\x9c\x08@'
tbs(g135
g166
tp1546
g5
(g6
(I0
tS'b'
tRp1547
(I1
(tg9
I00
S'\x99\xe0\xe5\xbf'
tbs(g140
g95
tp1548
g5
(g6
(I0
tS'b'
tRp1549
(I1
(tg9
I00
S'\x87\rGA'
tbs(g51
g177
tp1550
g5
(g6
(I0
tS'b'
tRp1551
(I1
(tg9
I00
S'r\x8b\xd4@'
tbs(g177
g296
tp1552
g5
(g6
(I0
tS'b'
tRp1553
(I1
(tg9
I00
S'\xff\xba%A'
tbs(g82
g34
tp1554
g5
(g6
(I0
tS'b'
tRp1555
(I1
(tg9
I00
S'sXq\xc1'
tbs(g163
g332
tp1556
g5
(g6
(I0
tS'b'
tRp1557
(I1
(tg9
I00
S'>\xfd\xee@'
tbs(g29
g163
tp1558
g5
(g6
(I0
tS'b'
tRp1559
(I1
(tg9
I00
S'\xc7i@@'
tbs(g261
g41
tp1560
g5
(g6
(I0
tS'b'
tRp1561
(I1
(tg9
I00
S'o\xe6\x11A'
tbs(g194
g219
tp1562
g5
(g6
(I0
tS'b'
tRp1563
(I1
(tg9
I00
S'\x84\x05\x9b@'
tbs(g132
g64
tp1564
g5
(g6
(I0
tS'b'
tRp1565
(I1
(tg9
I00
S'\x07\xc0\xdf?'
tbs(g173
g56
tp1566
g5
(g6
(I0
tS'b'
tRp1567
(I1
(tg9
I00
S'%&\xa7\xc0'
tbs(g140
g10
tp1568
g5
(g6
(I0
tS'b'
tRp1569
(I1
(tg9
I00
S'\xa7\xdd\x84A'
tbs(g41
g296
tp1570
g5
(g6
(I0
tS'b'
tRp1571
(I1
(tg9
I00
S'+\xbf\x8b\xc0'
tbs(g26
g332
tp1572
g5
(g6
(I0
tS'b'
tRp1573
(I1
(tg9
I00
S'\xbd\xed!A'
tbs(g166
g95
tp1574
g5
(g6
(I0
tS'b'
tRp1575
(I1
(tg9
I00
S',\xcd-A'
tbs(g48
g15
tp1576
g5
(g6
(I0
tS'b'
tRp1577
(I1
(tg9
I00
S'U\xcb\xf7\xc0'
tbs(g116
g78
tp1578
g5
(g6
(I0
tS'b'
tRp1579
(I1
(tg9
I00
S'!\xd3+\xc1'
tbs(g25
g95
tp1580
g5
(g6
(I0
tS'b'
tRp1581
(I1
(tg9
I00
S'\xe7\x81jA'
tbs(g19
g11
tp1582
g5
(g6
(I0
tS'b'
tRp1583
(I1
(tg9
I00
S'O\\E\xc1'
tbs(g75
g82
tp1584
g5
(g6
(I0
tS'b'
tRp1585
(I1
(tg9
I00
S':\xb4\x8aA'
tbs(g296
g52
tp1586
g5
(g6
(I0
tS'b'
tRp1587
(I1
(tg9
I00
S'\x86SD\xbf'
tbs(g41
g10
tp1588
g5
(g6
(I0
tS'b'
tRp1589
(I1
(tg9
I00
S'M\xa8=@'
tbs(g71
g123
tp1590
g5
(g6
(I0
tS'b'
tRp1591
(I1
(tg9
I00
S'e\x0f\x80\xc0'
tbs(g2
g152
tp1592
g5
(g6
(I0
tS'b'
tRp1593
(I1
(tg9
I00
S'\x8c\xaf&\xc1'
tbs(g34
g45
tp1594
g5
(g6
(I0
tS'b'
tRp1595
(I1
(tg9
I00
S'J\xd71A'
tbs(g94
g359
tp1596
g5
(g6
(I0
tS'b'
tRp1597
(I1
(tg9
I00
S'ix\x84\xc1'
tbs(g177
g15
tp1598
g5
(g6
(I0
tS'b'
tRp1599
(I1
(tg9
I00
S'\xf2\x04\xbd@'
tbs(g38
g100
tp1600
g5
(g6
(I0
tS'b'
tRp1601
(I1
(tg9
I00
S'\x99\x9bl\xc0'
tbs(g56
g332
tp1602
g5
(g6
(I0
tS'b'
tRp1603
(I1
(tg9
I00
S'\xe1\xda\tA'
tbs(g129
g185
tp1604
g5
(g6
(I0
tS'b'
tRp1605
(I1
(tg9
I00
S'\x96\x0e\xcf\xc0'
tbs(g100
g174
tp1606
g5
(g6
(I0
tS'b'
tRp1607
(I1
(tg9
I00
S'A\xb8bA'
tbs(g70
g11
tp1608
g5
(g6
(I0
tS'b'
tRp1609
(I1
(tg9
I00
S'\xcb\xdc\r\xc1'
tbs(g74
g33
tp1610
g5
(g6
(I0
tS'b'
tRp1611
(I1
(tg9
I00
S'\x99\x9a\xd0?'
tbs(g194
g129
tp1612
g5
(g6
(I0
tS'b'
tRp1613
(I1
(tg9
I00
S'\xab\xd3\x1c\xc1'
tbs(g51
g75
tp1614
g5
(g6
(I0
tS'b'
tRp1615
(I1
(tg9
I00
S'\xb4=F?'
tbs(g180
g91
tp1616
g5
(g6
(I0
tS'b'
tRp1617
(I1
(tg9
I00
S'\xd3G\xc6\xc0'
tbs(g64
g11
tp1618
g5
(g6
(I0
tS'b'
tRp1619
(I1
(tg9
I00
S'*M6\xc1'
tbs(g78
g174
tp1620
g5
(g6
(I0
tS'b'
tRp1621
(I1
(tg9
I00
S'C\x9f\x03A'
tbs(g185
g214
tp1622
g5
(g6
(I0
tS'b'
tRp1623
(I1
(tg9
I00
S',\x84\x00A'
tbs(g126
g296
tp1624
g5
(g6
(I0
tS'b'
tRp1625
(I1
(tg9
I00
S'\xfd6\xd2?'
tbs(g48
g219
tp1626
g5
(g6
(I0
tS'b'
tRp1627
(I1
(tg9
I00
S"\x9f'\xbf@"
tbs(g185
g78
tp1628
g5
(g6
(I0
tS'b'
tRp1629
(I1
(tg9
I00
S'\x0c\xb7\xb1@'
tbs(g25
g52
tp1630
g5
(g6
(I0
tS'b'
tRp1631
(I1
(tg9
I00
S'\x94\xa89A'
tbs(g132
g15
tp1632
g5
(g6
(I0
tS'b'
tRp1633
(I1
(tg9
I00
S'M\x8d?@'
tbs(g91
g11
tp1634
g5
(g6
(I0
tS'b'
tRp1635
(I1
(tg9
I00
S'Q\xb6\x80\xc0'
tbs(g261
g2
tp1636
g5
(g6
(I0
tS'b'
tRp1637
(I1
(tg9
I00
S'Q\xd01A'
tbs(g67
g41
tp1638
g5
(g6
(I0
tS'b'
tRp1639
(I1
(tg9
I00
S'\xff+\x8cA'
tbs(g261
g10
tp1640
g5
(g6
(I0
tS'b'
tRp1641
(I1
(tg9
I00
S'a!`A'
tbs(g197
g34
tp1642
g5
(g6
(I0
tS'b'
tRp1643
(I1
(tg9
I00
S'\xd4/0\xc1'
tbs(g30
g52
tp1644
g5
(g6
(I0
tS'b'
tRp1645
(I1
(tg9
I00
S'\xe3<\xd9\xc0'
tbs(g129
g111
tp1646
g5
(g6
(I0
tS'b'
tRp1647
(I1
(tg9
I00
S'\x1b\t\xb4?'
tbs(g70
g56
tp1648
g5
(g6
(I0
tS'b'
tRp1649
(I1
(tg9
I00
S'\xc9@\x12\xc1'
tbs(g140
g75
tp1650
g5
(g6
(I0
tS'b'
tRp1651
(I1
(tg9
I00
S'\xb0\x8f\x0e\xc1'
tbs(g61
g45
tp1652
g5
(g6
(I0
tS'b'
tRp1653
(I1
(tg9
I00
S'\rb\xd2\xbd'
tbs(g194
g163
tp1654
g5
(g6
(I0
tS'b'
tRp1655
(I1
(tg9
I00
S'\xc1w:\xc1'
tbs(g41
g332
tp1656
g5
(g6
(I0
tS'b'
tRp1657
(I1
(tg9
I00
S'-\xc4\xa5\xc0'
tbs(g75
g34
tp1658
g5
(g6
(I0
tS'b'
tRp1659
(I1
(tg9
I00
S'\x0b{A\xc0'
tbs(g177
g26
tp1660
g5
(g6
(I0
tS'b'
tRp1661
(I1
(tg9
I00
S'\x92\xdd\xe8\xc0'
tbs(g38
g11
tp1662
g5
(g6
(I0
tS'b'
tRp1663
(I1
(tg9
I00
S'u\x9bK\xc1'
tbs(g140
g194
tp1664
g5
(g6
(I0
tS'b'
tRp1665
(I1
(tg9
I00
S'\x0e\x8c\xbe@'
tbs(g105
g29
tp1666
g5
(g6
(I0
tS'b'
tRp1667
(I1
(tg9
I00
S'ft\x8f\xc0'
tbs(g214
g332
tp1668
g5
(g6
(I0
tS'b'
tRp1669
(I1
(tg9
I00
S'PL\xb0@'
tbs(g110
g95
tp1670
g5
(g6
(I0
tS'b'
tRp1671
(I1
(tg9
I00
S'0\x81MA'
tbs(g261
g95
tp1672
g5
(g6
(I0
tS'b'
tRp1673
(I1
(tg9
I00
S'6\x81\xe1@'
tbs(g219
g19
tp1674
g5
(g6
(I0
tS'b'
tRp1675
(I1
(tg9
I00
S'\xbc\xbe\x1b\xc1'
tbs(g261
g123
tp1676
g5
(g6
(I0
tS'b'
tRp1677
(I1
(tg9
I00
S'~\xac\x1a='
tbs(g61
g3
tp1678
g5
(g6
(I0
tS'b'
tRp1679
(I1
(tg9
I00
S'f5!\xc1'
tbs(g307
g111
tp1680
g5
(g6
(I0
tS'b'
tRp1681
(I1
(tg9
I00
S"\xe9'9\xc0"
tbs(g163
g174
tp1682
g5
(g6
(I0
tS'b'
tRp1683
(I1
(tg9
I00
S'}\xceCA'
tbs(g132
g38
tp1684
g5
(g6
(I0
tS'b'
tRp1685
(I1
(tg9
I00
S'8:\x08@'
tbs(g194
g34
tp1686
g5
(g6
(I0
tS'b'
tRp1687
(I1
(tg9
I00
S'\x1f\xa2W\xc1'
tbs(g61
g33
tp1688
g5
(g6
(I0
tS'b'
tRp1689
(I1
(tg9
I00
S'\xfd\xb4x\xc0'
tbs(g81
g71
tp1690
g5
(g6
(I0
tS'b'
tRp1691
(I1
(tg9
I00
S"\xd7'\x8c\xbf"
tbs(g30
g163
tp1692
g5
(g6
(I0
tS'b'
tRp1693
(I1
(tg9
I00
S'\x94\x81c\xc1'
tbs(g74
g3
tp1694
g5
(g6
(I0
tS'b'
tRp1695
(I1
(tg9
I00
S'\x98%\xf2\xc0'
tbs(g38
g26
tp1696
g5
(g6
(I0
tS'b'
tRp1697
(I1
(tg9
I00
S'\x03"2\xc1'
tbs(g126
g22
tp1698
g5
(g6
(I0
tS'b'
tRp1699
(I1
(tg9
I00
S'\xbd\x0ey\xc0'
tbs(g74
g197
tp1700
g5
(g6
(I0
tS'b'
tRp1701
(I1
(tg9
I00
S'H|\xb1\xc0'
tbs(g105
g78
tp1702
g5
(g6
(I0
tS'b'
tRp1703
(I1
(tg9
I00
S'\xdd\xb3\xb5\xbf'
tbs(g177
g123
tp1704
g5
(g6
(I0
tS'b'
tRp1705
(I1
(tg9
I00
S'\x18\xbb\xaa@'
tbs(g22
g95
tp1706
g5
(g6
(I0
tS'b'
tRp1707
(I1
(tg9
I00
S'.\xfb\xd6@'
tbs(g177
g95
tp1708
g5
(g6
(I0
tS'b'
tRp1709
(I1
(tg9
I00
S'\xb9\xb4gA'
tbs(g152
g194
tp1710
g5
(g6
(I0
tS'b'
tRp1711
(I1
(tg9
I00
S'\x03\xc8y@'
tbs(g359
g100
tp1712
g5
(g6
(I0
tS'b'
tRp1713
(I1
(tg9
I00
S'\xfeC\x13A'
tbs(g116
g100
tp1714
g5
(g6
(I0
tS'b'
tRp1715
(I1
(tg9
I00
S'|#\x94\xc1'
tbs(g15
g95
tp1716
g5
(g6
(I0
tS'b'
tRp1717
(I1
(tg9
I00
S'\x9d\xa27A'
tbs(g95
g78
tp1718
g5
(g6
(I0
tS'b'
tRp1719
(I1
(tg9
I00
S'\xb3\xd7$\xc1'
tbs(g67
g30
tp1720
g5
(g6
(I0
tS'b'
tRp1721
(I1
(tg9
I00
S'\xcdJ\x9bA'
tbs(g123
g82
tp1722
g5
(g6
(I0
tS'b'
tRp1723
(I1
(tg9
I00
S'\x99\xf1U@'
tbs(g2
g94
tp1724
g5
(g6
(I0
tS'b'
tRp1725
(I1
(tg9
I00
S'\xdb\x14\xab\xc0'
tbs(g177
g10
tp1726
g5
(g6
(I0
tS'b'
tRp1727
(I1
(tg9
I00
S'\r\xe8\x80A'
tbs(g15
g332
tp1728
g5
(g6
(I0
tS'b'
tRp1729
(I1
(tg9
I00
S'\xb90\x98@'
tbs(g30
g91
tp1730
g5
(g6
(I0
tS'b'
tRp1731
(I1
(tg9
I00
S'\xbb\xdas\xc1'
tbs(g25
g41
tp1732
g5
(g6
(I0
tS'b'
tRp1733
(I1
(tg9
I00
S'\x1d\xe1LA'
tbs(g100
g332
tp1734
g5
(g6
(I0
tS'b'
tRp1735
(I1
(tg9
I00
S'5\xb2(A'
tbs(g123
g174
tp1736
g5
(g6
(I0
tS'b'
tRp1737
(I1
(tg9
I00
S'\xba\x88\xa3@'
tbs(g10
g111
tp1738
g5
(g6
(I0
tS'b'
tRp1739
(I1
(tg9
I00
S']kP\xc1'
tbs(g94
g163
tp1740
g5
(g6
(I0
tS'b'
tRp1741
(I1
(tg9
I00
S'\xd0_\x00\xc1'
tbs(g116
g71
tp1742
g5
(g6
(I0
tS'b'
tRp1743
(I1
(tg9
I00
S'\x0eI\x9f\xc0'
tbs(g116
g166
tp1744
g5
(g6
(I0
tS'b'
tRp1745
(I1
(tg9
I00
S'Mwj\xc1'
tbs(g173
g307
tp1746
g5
(g6
(I0
tS'b'
tRp1747
(I1
(tg9
I00
S'\xe9\xee\x93\xc0'
tbs(g38
g111
tp1748
g5
(g6
(I0
tS'b'
tRp1749
(I1
(tg9
I00
S'*\x8e=@'
tbs(g81
g48
tp1750
g5
(g6
(I0
tS'b'
tRp1751
(I1
(tg9
I00
S'\xd5\xcb\xa0\xbf'
tbs(g140
g15
tp1752
g5
(g6
(I0
tS'b'
tRp1753
(I1
(tg9
I00
S'\x18\xea\xf0@'
tbs(g234
g180
tp1754
g5
(g6
(I0
tS'b'
tRp1755
(I1
(tg9
I00
S'\xe0\xfcZ\xc0'
tbs(g2
g110
tp1756
g5
(g6
(I0
tS'b'
tRp1757
(I1
(tg9
I00
S'\xc13?\xc1'
tbs(g100
g71
tp1758
g5
(g6
(I0
tS'b'
tRp1759
(I1
(tg9
I00
S'\xb4\xaa\x17A'
tbs(g41
g129
tp1760
g5
(g6
(I0
tS'b'
tRp1761
(I1
(tg9
I00
S'N\x18\x94\xc1'
tbs(g140
g81
tp1762
g5
(g6
(I0
tS'b'
tRp1763
(I1
(tg9
I00
S"\xacM'A"
tbs(g29
g143
tp1764
g5
(g6
(I0
tS'b'
tRp1765
(I1
(tg9
I00
S'\x9d.)@'
tbs(g140
g41
tp1766
g5
(g6
(I0
tS'b'
tRp1767
(I1
(tg9
I00
S'[\rHA'
tbs(g126
g15
tp1768
g5
(g6
(I0
tS'b'
tRp1769
(I1
(tg9
I00
S'\x91\x19\xb1\xc0'
tbs(g18
g74
tp1770
g5
(g6
(I0
tS'b'
tRp1771
(I1
(tg9
I00
S'{\n\x1fA'
tbs(g152
g45
tp1772
g5
(g6
(I0
tS'b'
tRp1773
(I1
(tg9
I00
S'\x88\x9c\xea@'
tbs(g56
g11
tp1774
g5
(g6
(I0
tS'b'
tRp1775
(I1
(tg9
I00
S'\xfa\t\xdf\xc0'
tbs(g2
g185
tp1776
g5
(g6
(I0
tS'b'
tRp1777
(I1
(tg9
I00
S'@\xf9^\xc1'
tbs(g110
g74
tp1778
g5
(g6
(I0
tS'b'
tRp1779
(I1
(tg9
I00
S'n\xa4\xe0@'
tbs(g25
g56
tp1780
g5
(g6
(I0
tS'b'
tRp1781
(I1
(tg9
I00
S'\x0ffd@'
tbs(g132
g129
tp1782
g5
(g6
(I0
tS'b'
tRp1783
(I1
(tg9
I00
S'\x9e3\xbc\xc0'
tbs(g261
g45
tp1784
g5
(g6
(I0
tS'b'
tRp1785
(I1
(tg9
I00
S'\xc7Z\xa2@'
tbs(g48
g64
tp1786
g5
(g6
(I0
tS'b'
tRp1787
(I1
(tg9
I00
S'\xe2O\xb5\xc0'
tbs(g64
g26
tp1788
g5
(g6
(I0
tS'b'
tRp1789
(I1
(tg9
I00
S'`\x8c0\xc1'
tbs(g132
g359
tp1790
g5
(g6
(I0
tS'b'
tRp1791
(I1
(tg9
I00
S'v\xc84\xc1'
tbs(g152
g10
tp1792
g5
(g6
(I0
tS'b'
tRp1793
(I1
(tg9
I00
S'\xc1\x12mA'
tbs(g177
g332
tp1794
g5
(g6
(I0
tS'b'
tRp1795
(I1
(tg9
I00
S'\xe0\xc6\xff@'
tbs(g91
g123
tp1796
g5
(g6
(I0
tS'b'
tRp1797
(I1
(tg9
I00
S'\x98\xc6\xe3@'
tbs(g37
g33
tp1798
g5
(g6
(I0
tS'b'
tRp1799
(I1
(tg9
I00
S'x\x04H\xc1'
tbs(g75
g3
tp1800
g5
(g6
(I0
tS'b'
tRp1801
(I1
(tg9
I00
S'\xfc\xf1\xe1@'
tbs(g51
g105
tp1802
g5
(g6
(I0
tS'b'
tRp1803
(I1
(tg9
I00
S'T\xa7\xae@'
tbs(g140
g26
tp1804
g5
(g6
(I0
tS'b'
tRp1805
(I1
(tg9
I00
S'\xb08\xa4\xc0'
tbs(g219
g100
tp1806
g5
(g6
(I0
tS'b'
tRp1807
(I1
(tg9
I00
S'Eo\xa5\xc1'
tbs(g194
g37
tp1808
g5
(g6
(I0
tS'b'
tRp1809
(I1
(tg9
I00
S'\x8b6\x1bA'
tbs(g177
g135
tp1810
g5
(g6
(I0
tS'b'
tRp1811
(I1
(tg9
I00
S'\xe3\xc64\xbf'
tbs(g194
g44
tp1812
g5
(g6
(I0
tS'b'
tRp1813
(I1
(tg9
I00
S'\x11\xd2(\xc0'
tbs(g22
g45
tp1814
g5
(g6
(I0
tS'b'
tRp1815
(I1
(tg9
I00
S'\xa7P\xec@'
tbs(g194
g173
tp1816
g5
(g6
(I0
tS'b'
tRp1817
(I1
(tg9
I00
S'.\x98\x05\xc0'
tbs(g126
g64
tp1818
g5
(g6
(I0
tS'b'
tRp1819
(I1
(tg9
I00
S'\xa7\xbe}\xc0'
tbs(g94
g194
tp1820
g5
(g6
(I0
tS'b'
tRp1821
(I1
(tg9
I00
S'\\\xa1\x17@'
tbs(g70
g52
tp1822
g5
(g6
(I0
tS'b'
tRp1823
(I1
(tg9
I00
S'\xd1:\x08@'
tbs(g3
g214
tp1824
g5
(g6
(I0
tS'b'
tRp1825
(I1
(tg9
I00
S'\x87"0\xc0'
tbs(g70
g33
tp1826
g5
(g6
(I0
tS'b'
tRp1827
(I1
(tg9
I00
S'OH\xdf?'
tbs(g261
g307
tp1828
g5
(g6
(I0
tS'b'
tRp1829
(I1
(tg9
I00
S'\x9b\x9e\xf1?'
tbs(g105
g129
tp1830
g5
(g6
(I0
tS'b'
tRp1831
(I1
(tg9
I00
S'i\xc3H\xc0'
tbs(g234
g25
tp1832
g5
(g6
(I0
tS'b'
tRp1833
(I1
(tg9
I00
S'\xbd\x0eO\xc1'
tbs(g194
g185
tp1834
g5
(g6
(I0
tS'b'
tRp1835
(I1
(tg9
I00
S'\xfb\xf2/\xc1'
tbs(g18
g143
tp1836
g5
(g6
(I0
tS'b'
tRp1837
(I1
(tg9
I00
S'\xd9W\xae?'
tbs(g48
g11
tp1838
g5
(g6
(I0
tS'b'
tRp1839
(I1
(tg9
I00
S'T\xdbS\xc1'
tbs(g67
g71
tp1840
g5
(g6
(I0
tS'b'
tRp1841
(I1
(tg9
I00
S'\xb5%jA'
tbs(g135
g197
tp1842
g5
(g6
(I0
tS'b'
tRp1843
(I1
(tg9
I00
S'A\xc3\x98@'
tbs(g100
g11
tp1844
g5
(g6
(I0
tS'b'
tRp1845
(I1
(tg9
I00
S'\x8c\n\xd6\xc0'
tbs(g219
g56
tp1846
g5
(g6
(I0
tS'b'
tRp1847
(I1
(tg9
I00
S'\xa6K\x9a\xc1'
tbs(g15
g10
tp1848
g5
(g6
(I0
tS'b'
tRp1849
(I1
(tg9
I00
S'g\xc99A'
tbs(g38
g70
tp1850
g5
(g6
(I0
tS'b'
tRp1851
(I1
(tg9
I00
S'\xbb\x102@'
tbs(g105
g132
tp1852
g5
(g6
(I0
tS'b'
tRp1853
(I1
(tg9
I00
S'O2B\xbf'
tbs(g105
g185
tp1854
g5
(g6
(I0
tS'b'
tRp1855
(I1
(tg9
I00
S'\xb9M\x14\xc1'
tbs(g61
g56
tp1856
g5
(g6
(I0
tS'b'
tRp1857
(I1
(tg9
I00
S'\x85\x80\xee\xc0'
tbs(g234
g359
tp1858
g5
(g6
(I0
tS'b'
tRp1859
(I1
(tg9
I00
S'9]\x8c\xc1'
tbs(g2
g82
tp1860
g5
(g6
(I0
tS'b'
tRp1861
(I1
(tg9
I00
S'\xf8Ng\xc0'
tbs(g197
g111
tp1862
g5
(g6
(I0
tS'b'
tRp1863
(I1
(tg9
I00
S'\xf6Lm='
tbs(g105
g91
tp1864
g5
(g6
(I0
tS'b'
tRp1865
(I1
(tg9
I00
S'I%n\xc0'
tbs(g180
g82
tp1866
g5
(g6
(I0
tS'b'
tRp1867
(I1
(tg9
I00
S'\xa5(\x12A'
tbs(g22
g307
tp1868
g5
(g6
(I0
tS'b'
tRp1869
(I1
(tg9
I00
S'u\x81K@'
tbs(g75
g22
tp1870
g5
(g6
(I0
tS'b'
tRp1871
(I1
(tg9
I00
S'\xc4\x15\xf6@'
tbs(g52
g214
tp1872
g5
(g6
(I0
tS'b'
tRp1873
(I1
(tg9
I00
S'\xb6}\xe0\xc0'
tbs(g14
g95
tp1874
g5
(g6
(I0
tS'b'
tRp1875
(I1
(tg9
I00
S'\x92\xd6pA'
tbs(g185
g174
tp1876
g5
(g6
(I0
tS'b'
tRp1877
(I1
(tg9
I00
S'\xcd\xc3DA'
tbs(g177
g55
tp1878
g5
(g6
(I0
tS'b'
tRp1879
(I1
(tg9
I00
S"'\x9d\x07\xc1"
tbs(g38
g33
tp1880
g5
(g6
(I0
tS'b'
tRp1881
(I1
(tg9
I00
S'\xe6\x1e\x90@'
tbs(g194
g91
tp1882
g5
(g6
(I0
tS'b'
tRp1883
(I1
(tg9
I00
S"'\xad\x1a\xc1"
tbs(g173
g10
tp1884
g5
(g6
(I0
tS'b'
tRp1885
(I1
(tg9
I00
S' h?A'
tbs(g2
g67
tp1886
g5
(g6
(I0
tS'b'
tRp1887
(I1
(tg9
I00
S'Q\xda\x90\xc1'
tbs(g18
g135
tp1888
g5
(g6
(I0
tS'b'
tRp1889
(I1
(tg9
I00
S'\xd9B\xbf\xbd'
tbs(g116
g163
tp1890
g5
(g6
(I0
tS'b'
tRp1891
(I1
(tg9
I00
S'\xa2\xafx\xc1'
tbs(g194
g3
tp1892
g5
(g6
(I0
tS'b'
tRp1893
(I1
(tg9
I00
S'4\xba\x99\xbc'
tbs(g3
g34
tp1894
g5
(g6
(I0
tS'b'
tRp1895
(I1
(tg9
I00
S'\xceQA\xc1'
tbs(g166
g45
tp1896
g5
(g6
(I0
tS'b'
tRp1897
(I1
(tg9
I00
S'\x0b&\x01A'
tbs(g3
g166
tp1898
g5
(g6
(I0
tS'b'
tRp1899
(I1
(tg9
I00
S'\xb5\xa6\xdb\xc0'
tbs(g152
g44
tp1900
g5
(g6
(I0
tS'b'
tRp1901
(I1
(tg9
I00
S'\x90*\xec@'
tbs(g14
g52
tp1902
g5
(g6
(I0
tS'b'
tRp1903
(I1
(tg9
I00
S'\xd1\xdcEA'
tbs(g177
g81
tp1904
g5
(g6
(I0
tS'b'
tRp1905
(I1
(tg9
I00
S'\xc2\xe8\xfe@'
tbs(g61
g91
tp1906
g5
(g6
(I0
tS'b'
tRp1907
(I1
(tg9
I00
S'\x98SH\xc1'
tbs(g140
g56
tp1908
g5
(g6
(I0
tS'b'
tRp1909
(I1
(tg9
I00
S'\x15#p?'
tbs(g143
g78
tp1910
g5
(g6
(I0
tS'b'
tRp1911
(I1
(tg9
I00
S'%\xcd\xb0?'
tbs(g234
g111
tp1912
g5
(g6
(I0
tS'b'
tRp1913
(I1
(tg9
I00
S']\xbd\xf0\xc0'
tbs(g166
g70
tp1914
g5
(g6
(I0
tS'b'
tRp1915
(I1
(tg9
I00
S'$\xc9"A'
tbs(g15
g78
tp1916
g5
(g6
(I0
tS'b'
tRp1917
(I1
(tg9
I00
S'\x95Z\x99\xc0'
tbs(g180
g95
tp1918
g5
(g6
(I0
tS'b'
tRp1919
(I1
(tg9
I00
S'$k\xab@'
tbs(g64
g332
tp1920
g5
(g6
(I0
tS'b'
tRp1921
(I1
(tg9
I00
S'jW\xd3\xbf'
tbs(g180
g163
tp1922
g5
(g6
(I0
tS'b'
tRp1923
(I1
(tg9
I00
S'\x93\\\x1e\xc0'
tbs(g234
g74
tp1924
g5
(g6
(I0
tS'b'
tRp1925
(I1
(tg9
I00
S'\xd6\xbez\xbf'
tbs(g67
g234
tp1926
g5
(g6
(I0
tS'b'
tRp1927
(I1
(tg9
I00
S'\x0f\t\\A'
tbs(g261
g51
tp1928
g5
(g6
(I0
tS'b'
tRp1929
(I1
(tg9
I00
S'M\xc0R\xc1'
tbs(g219
g359
tp1930
g5
(g6
(I0
tS'b'
tRp1931
(I1
(tg9
I00
S'\x86_\xb0\xc1'
tbs(g110
g37
tp1932
g5
(g6
(I0
tS'b'
tRp1933
(I1
(tg9
I00
S'\xa9\xfdcA'
tbs(g82
g174
tp1934
g5
(g6
(I0
tS'b'
tRp1935
(I1
(tg9
I00
S'w\x9bq@'
tbs(g140
g332
tp1936
g5
(g6
(I0
tS'b'
tRp1937
(I1
(tg9
I00
S'\xdf\xd2,A'
tbs(g197
g30
tp1938
g5
(g6
(I0
tS'b'
tRp1939
(I1
(tg9
I00
S'\xdb\xf0\x19A'
tbs(g25
g11
tp1940
g5
(g6
(I0
tS'b'
tRp1941
(I1
(tg9
I00
S'\x10\xfbl\xc0'
tbs(g261
g78
tp1942
g5
(g6
(I0
tS'b'
tRp1943
(I1
(tg9
I00
S'\xe1y\x9a\xc0'
tbs(g110
g177
tp1944
g5
(g6
(I0
tS'b'
tRp1945
(I1
(tg9
I00
S'\xb7X\xac\xbf'
tbs(g51
g197
tp1946
g5
(g6
(I0
tS'b'
tRp1947
(I1
(tg9
I00
S'9f\x00A'
tbs(g15
g143
tp1948
g5
(g6
(I0
tS'b'
tRp1949
(I1
(tg9
I00
S'\x96\xc6\x85\xc0'
tbs(g132
g95
tp1950
g5
(g6
(I0
tS'b'
tRp1951
(I1
(tg9
I00
S'Y\x81$A'
tbs(g2
g78
tp1952
g5
(g6
(I0
tS'b'
tRp1953
(I1
(tg9
I00
S'\x89Pl\xc1'
tbs(g132
g19
tp1954
g5
(g6
(I0
tS'b'
tRp1955
(I1
(tg9
I00
S'}7%@'
tbs(g19
g52
tp1956
g5
(g6
(I0
tS'b'
tRp1957
(I1
(tg9
I00
S'\xecM\xcd?'
tbs(g29
g44
tp1958
g5
(g6
(I0
tS'b'
tRp1959
(I1
(tg9
I00
S'\x89\xddWA'
tbs(g74
g214
tp1960
g5
(g6
(I0
tS'b'
tRp1961
(I1
(tg9
I00
S'\x8a\xc3\xc3\xc0'
tbs(g219
g82
tp1962
g5
(g6
(I0
tS'b'
tRp1963
(I1
(tg9
I00
S'UW\xa4\xc0'
tbs(g75
g37
tp1964
g5
(g6
(I0
tS'b'
tRp1965
(I1
(tg9
I00
S'_\x81\xa9A'
tbs(g261
g94
tp1966
g5
(g6
(I0
tS'b'
tRp1967
(I1
(tg9
I00
S'\xed~~@'
tbs(g163
g56
tp1968
g5
(g6
(I0
tS'b'
tRp1969
(I1
(tg9
I00
S'w\xcdW\xbf'
tbs(g22
g3
tp1970
g5
(g6
(I0
tS'b'
tRp1971
(I1
(tg9
I00
S'\xdb\xf4\x12@'
tbs(g18
g129
tp1972
g5
(g6
(I0
tS'b'
tRp1973
(I1
(tg9
I00
S'\xbf^\xf0\xbf'
tbs(g174
g332
tp1974
g5
(g6
(I0
tS'b'
tRp1975
(I1
(tg9
I00
S'{\x1f\xdb\xc0'
tbs(g81
g180
tp1976
g5
(g6
(I0
tS'b'
tRp1977
(I1
(tg9
I00
S'\xd73\x9a\xc0'
tbs(g14
g70
tp1978
g5
(g6
(I0
tS'b'
tRp1979
(I1
(tg9
I00
S'\xab\xe9\x08A'
tbs(g177
g34
tp1980
g5
(g6
(I0
tS'b'
tRp1981
(I1
(tg9
I00
S'\x8d\x10]\xc1'
tbs(g126
g70
tp1982
g5
(g6
(I0
tS'b'
tRp1983
(I1
(tg9
I00
S'\x03\xff\x8b\xbf'
tbs(g173
g91
tp1984
g5
(g6
(I0
tS'b'
tRp1985
(I1
(tg9
I00
S'\xed\xb2\x1a\xc1'
tbs(g75
g197
tp1986
g5
(g6
(I0
tS'b'
tRp1987
(I1
(tg9
I00
S'\x9bl$A'
tbs(g185
g95
tp1988
g5
(g6
(I0
tS'b'
tRp1989
(I1
(tg9
I00
S']{PA'
tbs(g105
g95
tp1990
g5
(g6
(I0
tS'b'
tRp1991
(I1
(tg9
I00
S'\xbaL\xd5@'
tbs(g74
g95
tp1992
g5
(g6
(I0
tS'b'
tRp1993
(I1
(tg9
I00
S'\xaa\x85\x8e?'
tbs(g37
g10
tp1994
g5
(g6
(I0
tS'b'
tRp1995
(I1
(tg9
I00
S'Q\xd1\x8e\xc0'
tbs(g234
g11
tp1996
g5
(g6
(I0
tS'b'
tRp1997
(I1
(tg9
I00
S'\x05\xf2\\\xc1'
tbs(g48
g123
tp1998
g5
(g6
(I0
tS'b'
tRp1999
(I1
(tg9
I00
S'\xb3v\xaf\xbf'
tbs(g70
g307
tp2000
g5
(g6
(I0
tS'b'
tRp2001
(I1
(tg9
I00
S'<\x1b\xa1\xc0'
tbs(g78
g332
tp2002
g5
(g6
(I0
tS'b'
tRp2003
(I1
(tg9
I00
S'2@\x8b@'
tbs(g132
g52
tp2004
g5
(g6
(I0
tS'b'
tRp2005
(I1
(tg9
I00
S'\xd6\n\x85@'
tbs(g129
g45
tp2006
g5
(g6
(I0
tS'b'
tRp2007
(I1
(tg9
I00
S'\x95\x07\xa3@'
tbs(g95
g214
tp2008
g5
(g6
(I0
tS'b'
tRp2009
(I1
(tg9
I00
S'\xbf\x82\x04\xc1'
tbs(g51
g129
tp2010
g5
(g6
(I0
tS'b'
tRp2011
(I1
(tg9
I00
S'I\xfd\x16@'
tbs(g94
g111
tp2012
g5
(g6
(I0
tS'b'
tRp2013
(I1
(tg9
I00
S'\x81\xc3\x87\xc0'
tbs(g11
g174
tp2014
g5
(g6
(I0
tS'b'
tRp2015
(I1
(tg9
I00
S'\xfa\xb0\x8dA'
tbs(g44
g78
tp2016
g5
(g6
(I0
tS'b'
tRp2017
(I1
(tg9
I00
S'\xc9f\xb6\xc0'
tbs(g261
g111
tp2018
g5
(g6
(I0
tS'b'
tRp2019
(I1
(tg9
I00
S'\xab C\xbf'
tbs(g110
g180
tp2020
g5
(g6
(I0
tS'b'
tRp2021
(I1
(tg9
I00
S'\xc0#\x8e@'
tbs(g359
g82
tp2022
g5
(g6
(I0
tS'b'
tRp2023
(I1
(tg9
I00
S'\xaf%\x8bA'
tbs(g3
g19
tp2024
g5
(g6
(I0
tS'b'
tRp2025
(I1
(tg9
I00
S'\xac\x94\xa6\xbf'
tbs(g18
g22
tp2026
g5
(g6
(I0
tS'b'
tRp2027
(I1
(tg9
I00
S'AwF@'
tbs(g29
g194
tp2028
g5
(g6
(I0
tS'b'
tRp2029
(I1
(tg9
I00
S'\x0b\xef\xf4@'
tbs(g38
g173
tp2030
g5
(g6
(I0
tS'b'
tRp2031
(I1
(tg9
I00
S'\xe3\xb4\xa3\xbf'
tbs(g2
g81
tp2032
g5
(g6
(I0
tS'b'
tRp2033
(I1
(tg9
I00
S'i-v\xc0'
tbs(g100
g10
tp2034
g5
(g6
(I0
tS'b'
tRp2035
(I1
(tg9
I00
S'\xb7\xf4\x9fA'
tbs(g61
g359
tp2036
g5
(g6
(I0
tS'b'
tRp2037
(I1
(tg9
I00
S'\xda\xe7}\xc1'
tbs(g163
g64
tp2038
g5
(g6
(I0
tS'b'
tRp2039
(I1
(tg9
I00
S'\xd6\xd4\xa7@'
tbs(g261
g81
tp2040
g5
(g6
(I0
tS'b'
tRp2041
(I1
(tg9
I00
S'\xb8s\xa1@'
tbs(g163
g214
tp2042
g5
(g6
(I0
tS'b'
tRp2043
(I1
(tg9
I00
S'a\x82\x95@'
tbs(g261
g64
tp2044
g5
(g6
(I0
tS'b'
tRp2045
(I1
(tg9
I00
S'\xfb\x19\xb5\xbe'
tbs(g61
g37
tp2046
g5
(g6
(I0
tS'b'
tRp2047
(I1
(tg9
I00
S'1\x1c5A'
tbs(g194
g48
tp2048
g5
(g6
(I0
tS'b'
tRp2049
(I1
(tg9
I00
S'\x842\x1d\xbf'
tbs(g100
g214
tp2050
g5
(g6
(I0
tS'b'
tRp2051
(I1
(tg9
I00
S'\xd5\xc7!@'
tbs(g135
g14
tp2052
g5
(g6
(I0
tS'b'
tRp2053
(I1
(tg9
I00
S'\xff]\xe8\xbf'
tbs(g197
g166
tp2054
g5
(g6
(I0
tS'b'
tRp2055
(I1
(tg9
I00
S'`=\xbe\xc0'
tbs(g44
g166
tp2056
g5
(g6
(I0
tS'b'
tRp2057
(I1
(tg9
I00
S'\x12\xc0\x17\xc1'
tbs(g126
g55
tp2058
g5
(g6
(I0
tS'b'
tRp2059
(I1
(tg9
I00
S'/\x1fW\xc1'
tbs(g194
g30
tp2060
g5
(g6
(I0
tS'b'
tRp2061
(I1
(tg9
I00
S'\xc8\x85\xd3@'
tbs(g61
g105
tp2062
g5
(g6
(I0
tS'b'
tRp2063
(I1
(tg9
I00
S'\r\r\x16\xc1'
tbs(g296
g33
tp2064
g5
(g6
(I0
tS'b'
tRp2065
(I1
(tg9
I00
S'\xea\xa7\x98\xbe'
tbs(g234
g100
tp2066
g5
(g6
(I0
tS'b'
tRp2067
(I1
(tg9
I00
S'P\x9dW\xc1'
tbs(g359
g34
tp2068
g5
(g6
(I0
tS'b'
tRp2069
(I1
(tg9
I00
S'\xfbcf@'
tbs(g129
g91
tp2070
g5
(g6
(I0
tS'b'
tRp2071
(I1
(tg9
I00
S'd\x96\x12\xc0'
tbs(g95
g38
tp2072
g5
(g6
(I0
tS'b'
tRp2073
(I1
(tg9
I00
S'\xfcw\xbc\xc0'
tbs(g67
g132
tp2074
g5
(g6
(I0
tS'b'
tRp2075
(I1
(tg9
I00
S'\xa2\xf4\xba@'
tbs(g51
g38
tp2076
g5
(g6
(I0
tS'b'
tRp2077
(I1
(tg9
I00
S'\xad\xe2\x17A'
tbs(g48
g332
tp2078
g5
(g6
(I0
tS'b'
tRp2079
(I1
(tg9
I00
S'\x19{\x88\xbf'
tbs(g129
g214
tp2080
g5
(g6
(I0
tS'b'
tRp2081
(I1
(tg9
I00
S'\xf3\x84\x9e?'
tbs(g132
g45
tp2082
g5
(g6
(I0
tS'b'
tRp2083
(I1
(tg9
I00
S'\xb2\x93\xe3@'
tbs(g74
g219
tp2084
g5
(g6
(I0
tS'b'
tRp2085
(I1
(tg9
I00
S'~\xa2\xd3@'
tbs(g75
g33
tp2086
g5
(g6
(I0
tS'b'
tRp2087
(I1
(tg9
I00
S'\x16A_A'
tbs(g126
g25
tp2088
g5
(g6
(I0
tS'b'
tRp2089
(I1
(tg9
I00
S'pP[\xc1'
tbs(g126
g185
tp2090
g5
(g6
(I0
tS'b'
tRp2091
(I1
(tg9
I00
S'\xed\x04O\xc1'
tbs(g116
g185
tp2092
g5
(g6
(I0
tS'b'
tRp2093
(I1
(tg9
I00
S'\xb2\x15v\xc1'
tbs(g44
g14
tp2094
g5
(g6
(I0
tS'b'
tRp2095
(I1
(tg9
I00
S'\x85\x1e<\xc1'
tbs(g194
g359
tp2096
g5
(g6
(I0
tS'b'
tRp2097
(I1
(tg9
I00
S'D{\x85\xc1'
tbs(g185
g100
tp2098
g5
(g6
(I0
tS'b'
tRp2099
(I1
(tg9
I00
S'\xc2\x0e\xcf@'
tbs(g33
g56
tp2100
g5
(g6
(I0
tS'b'
tRp2101
(I1
(tg9
I00
S'p\x13\x16\xc1'
tbs(g173
g71
tp2102
g5
(g6
(I0
tS'b'
tRp2103
(I1
(tg9
I00
S'\x0b\xba\x14@'
tbs(g163
g11
tp2104
g5
(g6
(I0
tS'b'
tRp2105
(I1
(tg9
I00
S'8\x8b\x95\xc0'
tbs(g51
g15
tp2106
g5
(g6
(I0
tS'b'
tRp2107
(I1
(tg9
I00
S'\xad:)A'
tbs(g95
g56
tp2108
g5
(g6
(I0
tS'b'
tRp2109
(I1
(tg9
I00
S'\xad]6\xc1'
tbs(g74
g82
tp2110
g5
(g6
(I0
tS'b'
tRp2111
(I1
(tg9
I00
S'j\x7f\x86>'
tbs(g55
g33
tp2112
g5
(g6
(I0
tS'b'
tRp2113
(I1
(tg9
I00
S'\xe0\xef8A'
tbs(g19
g173
tp2114
g5
(g6
(I0
tS'b'
tRp2115
(I1
(tg9
I00
S'\x18\x86\x9e\xc0'
tbs(g105
g135
tp2116
g5
(g6
(I0
tS'b'
tRp2117
(I1
(tg9
I00
S'\xb2a\x8e\xc0'
tbs(g185
g45
tp2118
g5
(g6
(I0
tS'b'
tRp2119
(I1
(tg9
I00
S'\xd5\xaf-A'
tbs(g61
g29
tp2120
g5
(g6
(I0
tS'b'
tRp2121
(I1
(tg9
I00
S',K\x14\xc1'
tbs(g15
g82
tp2122
g5
(g6
(I0
tS'b'
tRp2123
(I1
(tg9
I00
S'#\xdc\xf4@'
tbs(g81
g37
tp2124
g5
(g6
(I0
tS'b'
tRp2125
(I1
(tg9
I00
S'D\x07<A'
tbs(g74
g45
tp2126
g5
(g6
(I0
tS'b'
tRp2127
(I1
(tg9
I00
S'\x9cj\x02\xc0'
tbs(g95
g19
tp2128
g5
(g6
(I0
tS'b'
tRp2129
(I1
(tg9
I00
S'B\x9aJ\xc0'
tbs(g2
g71
tp2130
g5
(g6
(I0
tS'b'
tRp2131
(I1
(tg9
I00
S'\xf2V\x90\xc0'
tbs(g177
g219
tp2132
g5
(g6
(I0
tS'b'
tRp2133
(I1
(tg9
I00
S'\x07JbA'
tbs(g163
g33
tp2134
g5
(g6
(I0
tS'b'
tRp2135
(I1
(tg9
I00
S'\x98\xc2\xec@'
tbs(g18
g14
tp2136
g5
(g6
(I0
tS'b'
tRp2137
(I1
(tg9
I00
S'E\x04h?'
tbs(g18
g234
tp2138
g5
(g6
(I0
tS'b'
tRp2139
(I1
(tg9
I00
S'z%\xff@'
tbs(g61
g296
tp2140
g5
(g6
(I0
tS'b'
tRp2141
(I1
(tg9
I00
S'DGZ\xc0'
tbs(g15
g56
tp2142
g5
(g6
(I0
tS'b'
tRp2143
(I1
(tg9
I00
S'YA\xad\xc0'
tbs(g152
g111
tp2144
g5
(g6
(I0
tS'b'
tRp2145
(I1
(tg9
I00
S'\xb9\xfbv@'
tbs(g74
g70
tp2146
g5
(g6
(I0
tS'b'
tRp2147
(I1
(tg9
I00
S'\xbe\xd8A\xc0'
tbs(g26
g174
tp2148
g5
(g6
(I0
tS'b'
tRp2149
(I1
(tg9
I00
S'a\x06YA'
tbs(g173
g52
tp2150
g5
(g6
(I0
tS'b'
tRp2151
(I1
(tg9
I00
S'S\x88d@'
tbs(g22
g332
tp2152
g5
(g6
(I0
tS'b'
tRp2153
(I1
(tg9
I00
S'4\x94\xaf@'
tbs(g2
g64
tp2154
g5
(g6
(I0
tS'b'
tRp2155
(I1
(tg9
I00
S'{D/\xc1'
tbs(g140
g34
tp2156
g5
(g6
(I0
tS'b'
tRp2157
(I1
(tg9
I00
S'\x99\xe9\x04\xc1'
tbs(g261
g194
tp2158
g5
(g6
(I0
tS'b'
tRp2159
(I1
(tg9
I00
S'\xc1\xf1<@'
tbs(g33
g11
tp2160
g5
(g6
(I0
tS'b'
tRp2161
(I1
(tg9
I00
S'\xd4`K\xc1'
tbs(g15
g26
tp2162
g5
(g6
(I0
tS'b'
tRp2163
(I1
(tg9
I00
S'\x1f\xe2\xd1\xc0'
tbs(g78
g26
tp2164
g5
(g6
(I0
tS'b'
tRp2165
(I1
(tg9
I00
S'G4\x82\xc0'
tbs(g67
g359
tp2166
g5
(g6
(I0
tS'b'
tRp2167
(I1
(tg9
I00
S'-\x04\xff\xc0'
tbs(g51
g180
tp2168
g5
(g6
(I0
tS'b'
tRp2169
(I1
(tg9
I00
S'D?\x1eA'
tbs(g177
g37
tp2170
g5
(g6
(I0
tS'b'
tRp2171
(I1
(tg9
I00
S'\xfa\x13qA'
tbs(g140
g45
tp2172
g5
(g6
(I0
tS'b'
tRp2173
(I1
(tg9
I00
S'8\x16\x11A'
tbs(g234
g45
tp2174
g5
(g6
(I0
tS'b'
tRp2175
(I1
(tg9
I00
S'G,\xa2>'
tbs(g105
g10
tp2176
g5
(g6
(I0
tS'b'
tRp2177
(I1
(tg9
I00
S'\xeajXA'
tbs(g105
g177
tp2178
g5
(g6
(I0
tS'b'
tRp2179
(I1
(tg9
I00
S'\xa5\xa3j\xc0'
tbs(g44
g359
tp2180
g5
(g6
(I0
tS'b'
tRp2181
(I1
(tg9
I00
S'B\xb7\x80\xc1'
tbs(g61
g38
tp2182
g5
(g6
(I0
tS'b'
tRp2183
(I1
(tg9
I00
S'S\xf1\x99\xc0'
tbs(g296
g332
tp2184
g5
(g6
(I0
tS'b'
tRp2185
(I1
(tg9
I00
S',n\x9d\xbf'
tbs(g14
g185
tp2186
g5
(g6
(I0
tS'b'
tRp2187
(I1
(tg9
I00
S'\xfe\xf5\xf1\xc0'
tbs(g51
g11
tp2188
g5
(g6
(I0
tS'b'
tRp2189
(I1
(tg9
I00
S'+\xfe\x01\xc0'
tbs(g219
g129
tp2190
g5
(g6
(I0
tS'b'
tRp2191
(I1
(tg9
I00
S'%\x9f\xae\xc1'
tbs(g56
g307
tp2192
g5
(g6
(I0
tS'b'
tRp2193
(I1
(tg9
I00
S'\xbd]-@'
tbs(g185
g307
tp2194
g5
(g6
(I0
tS'b'
tRp2195
(I1
(tg9
I00
S'6\x9f\xb8@'
tbs(g166
g71
tp2196
g5
(g6
(I0
tS'b'
tRp2197
(I1
(tg9
I00
S'\xc3$\x1cA'
tbs(g132
g214
tp2198
g5
(g6
(I0
tS'b'
tRp2199
(I1
(tg9
I00
S'1\x85\x90\xbf'
tbs(g74
g307
tp2200
g5
(g6
(I0
tS'b'
tRp2201
(I1
(tg9
I00
S'\xc73\xdd\xc0'
tbs(g15
g91
tp2202
g5
(g6
(I0
tS'b'
tRp2203
(I1
(tg9
I00
S'\x04\xad\xf7\xc0'
tbs(g75
g48
tp2204
g5
(g6
(I0
tS'b'
tRp2205
(I1
(tg9
I00
S'\xbe\xd4MA'
tbs(g74
g100
tp2206
g5
(g6
(I0
tS'b'
tRp2207
(I1
(tg9
I00
S'\xf9d8\xc1'
tbs(g61
g82
tp2208
g5
(g6
(I0
tS'b'
tRp2209
(I1
(tg9
I00
S'\xbe=\x04@'
tbs(g38
g34
tp2210
g5
(g6
(I0
tS'b'
tRp2211
(I1
(tg9
I00
S'\xd3\xe9>\xc1'
tbs(g110
g14
tp2212
g5
(g6
(I0
tS'b'
tRp2213
(I1
(tg9
I00
S'\x87\x18\xc2\xbf'
tbs(g75
g116
tp2214
g5
(g6
(I0
tS'b'
tRp2215
(I1
(tg9
I00
S'PA\x83A'
tbs(g234
g30
tp2216
g5
(g6
(I0
tS'b'
tRp2217
(I1
(tg9
I00
S'\xf4\x0c\x98@'
tbs(g234
g332
tp2218
g5
(g6
(I0
tS'b'
tRp2219
(I1
(tg9
I00
S'\xdf\xb0\xfa?'
tbs(g44
g214
tp2220
g5
(g6
(I0
tS'b'
tRp2221
(I1
(tg9
I00
S'\x85\xe3p\xc0'
tbs(g194
g95
tp2222
g5
(g6
(I0
tS'b'
tRp2223
(I1
(tg9
I00
S'B\xae\x03@'
tbs(g234
g15
tp2224
g5
(g6
(I0
tS'b'
tRp2225
(I1
(tg9
I00
S'>\xe7\x13\xc1'
tbs(g48
g214
tp2226
g5
(g6
(I0
tS'b'
tRp2227
(I1
(tg9
I00
S'n\xa5\xd9\xc0'
tbs(g51
g143
tp2228
g5
(g6
(I0
tS'b'
tRp2229
(I1
(tg9
I00
S'\xef\x96\xdd@'
tbs(g140
g174
tp2230
g5
(g6
(I0
tS'b'
tRp2231
(I1
(tg9
I00
S"'\x8fhA"
tbs(g163
g45
tp2232
g5
(g6
(I0
tS'b'
tRp2233
(I1
(tg9
I00
S'\x13\xbc$A'
tbs(g14
g11
tp2234
g5
(g6
(I0
tS'b'
tRp2235
(I1
(tg9
I00
S'\xcb\x97\x0e\xc1'
tbs(g129
g100
tp2236
g5
(g6
(I0
tS'b'
tRp2237
(I1
(tg9
I00
S'\xb0\xd8\xf0\xbe'
tbs(g197
g14
tp2238
g5
(g6
(I0
tS'b'
tRp2239
(I1
(tg9
I00
S'\x02-\x8c\xc0'
tbs(g129
g33
tp2240
g5
(g6
(I0
tS'b'
tRp2241
(I1
(tg9
I00
S'2\x96\xd3@'
tbs(g3
g11
tp2242
g5
(g6
(I0
tS'b'
tRp2243
(I1
(tg9
I00
S'\x13>?\xc1'
tbs(g261
g37
tp2244
g5
(g6
(I0
tS'b'
tRp2245
(I1
(tg9
I00
S'[\x85fA'
tbs(g67
g29
tp2246
g5
(g6
(I0
tS'b'
tRp2247
(I1
(tg9
I00
S'\xb2\x9e<@'
tbs(g152
g219
tp2248
g5
(g6
(I0
tS'b'
tRp2249
(I1
(tg9
I00
S'\xef\xceNA'
tbs(g173
g214
tp2250
g5
(g6
(I0
tS'b'
tRp2251
(I1
(tg9
I00
S'\xe8La\xc0'
tbs(g261
g173
tp2252
g5
(g6
(I0
tS'b'
tRp2253
(I1
(tg9
I00
S'\xc4\xd4a\xc0'
tbs(g105
g55
tp2254
g5
(g6
(I0
tS'b'
tRp2255
(I1
(tg9
I00
S'+\xd4\xfa\xc0'
tbs(g15
g70
tp2256
g5
(g6
(I0
tS'b'
tRp2257
(I1
(tg9
I00
S'\xd1\xda\\@'
tbs(g359
g129
tp2258
g5
(g6
(I0
tS'b'
tRp2259
(I1
(tg9
I00
S'\x17T%A'
tbs(g152
g78
tp2260
g5
(g6
(I0
tS'b'
tRp2261
(I1
(tg9
I00
S'\x0f\t>\xc0'
tbs(g75
g30
tp2262
g5
(g6
(I0
tS'b'
tRp2263
(I1
(tg9
I00
S'\x99\xd4\x92A'
tbs(g18
g110
tp2264
g5
(g6
(I0
tS'b'
tRp2265
(I1
(tg9
I00
S'\xd9\x83\xf2?'
tbs(g105
g48
tp2266
g5
(g6
(I0
tS'b'
tRp2267
(I1
(tg9
I00
S'\x99\n\tA'
tbs(g173
g82
tp2268
g5
(g6
(I0
tS'b'
tRp2269
(I1
(tg9
I00
S'\xf8\xfb\xbc@'
tbs(g37
g44
tp2270
g5
(g6
(I0
tS'b'
tRp2271
(I1
(tg9
I00
S'OYK\xc1'
tbs(g296
g78
tp2272
g5
(g6
(I0
tS'b'
tRp2273
(I1
(tg9
I00
S'q\xe1!\xc1'
tbs(g30
g14
tp2274
g5
(g6
(I0
tS'b'
tRp2275
(I1
(tg9
I00
S'\x1bPf\xc1'
tbs(g180
g41
tp2276
g5
(g6
(I0
tS'b'
tRp2277
(I1
(tg9
I00
S'\x1f\xc1\x01A'
tbs(g74
g14
tp2278
g5
(g6
(I0
tS'b'
tRp2279
(I1
(tg9
I00
S'[F*\xc1'
tbs(g95
g70
tp2280
g5
(g6
(I0
tS'b'
tRp2281
(I1
(tg9
I00
S'\xb1F5\xc0'
tbs(g296
g56
tp2282
g5
(g6
(I0
tS'b'
tRp2283
(I1
(tg9
I00
S'\xb0n(\xc1'
tbs(g44
g180
tp2284
g5
(g6
(I0
tS'b'
tRp2285
(I1
(tg9
I00
S'\xa8\xb4\x86\xc0'
tbs(g91
g26
tp2286
g5
(g6
(I0
tS'b'
tRp2287
(I1
(tg9
I00
S'\x86\xac\x91\xc0'
tbs(g177
g33
tp2288
g5
(g6
(I0
tS'b'
tRp2289
(I1
(tg9
I00
S'(\xb6\xdd@'
tbs(g129
g56
tp2290
g5
(g6
(I0
tS'b'
tRp2291
(I1
(tg9
I00
S'\xd7\x92H\xbf'
tbs(g55
g111
tp2292
g5
(g6
(I0
tS'b'
tRp2293
(I1
(tg9
I00
S'i\xce\x01A'
tbs(g110
g359
tp2294
g5
(g6
(I0
tS'b'
tRp2295
(I1
(tg9
I00
S'HO(\xc1'
tbs(g3
g185
tp2296
g5
(g6
(I0
tS'b'
tRp2297
(I1
(tg9
I00
S'\nJ!\xc1'
tbs(g25
g55
tp2298
g5
(g6
(I0
tS'b'
tRp2299
(I1
(tg9
I00
S'\x93j\x94\xbf'
tbs(g15
g52
tp2300
g5
(g6
(I0
tS'b'
tRp2301
(I1
(tg9
I00
S'\x18]\xc8@'
tbs(g105
g22
tp2302
g5
(g6
(I0
tS'b'
tRp2303
(I1
(tg9
I00
S'g\x91\xa6?'
tbs(g61
g64
tp2304
g5
(g6
(I0
tS'b'
tRp2305
(I1
(tg9
I00
S'\xe5]\x7f\xc0'
tbs(g140
g126
tp2306
g5
(g6
(I0
tS'b'
tRp2307
(I1
(tg9
I00
S'\xcb\x81\x07A'
tbs(g14
g64
tp2308
g5
(g6
(I0
tS'b'
tRp2309
(I1
(tg9
I00
S'\xf6\xa5\xc1@'
tbs(g37
g34
tp2310
g5
(g6
(I0
tS'b'
tRp2311
(I1
(tg9
I00
S',#\x90\xc1'
tbs(g140
g19
tp2312
g5
(g6
(I0
tS'b'
tRp2313
(I1
(tg9
I00
S'\xb6K\xd3@'
tbs(g126
g214
tp2314
g5
(g6
(I0
tS'b'
tRp2315
(I1
(tg9
I00
S'\xf7$\xa5\xc0'
tbs(g132
g30
tp2316
g5
(g6
(I0
tS'b'
tRp2317
(I1
(tg9
I00
S'\xb5T!A'
tbs(g126
g152
tp2318
g5
(g6
(I0
tS'b'
tRp2319
(I1
(tg9
I00
S'~gH\xc0'
tbs(g126
g135
tp2320
g5
(g6
(I0
tS'b'
tRp2321
(I1
(tg9
I00
S'\x93 \x14\xc1'
tbs(g135
g82
tp2322
g5
(g6
(I0
tS'b'
tRp2323
(I1
(tg9
I00
S'\xa5\xd0)A'
tbs(g25
g163
tp2324
g5
(g6
(I0
tS'b'
tRp2325
(I1
(tg9
I00
S'\xba\x99\xdc?'
tbs(g180
g174
tp2326
g5
(g6
(I0
tS'b'
tRp2327
(I1
(tg9
I00
S' \x0b2A'
tbs(g18
g44
tp2328
g5
(g6
(I0
tS'b'
tRp2329
(I1
(tg9
I00
S'\xfb\xad\x17A'
tbs(g214
g34
tp2330
g5
(g6
(I0
tS'b'
tRp2331
(I1
(tg9
I00
S'\xb6W+\xc1'
tbs(g261
g135
tp2332
g5
(g6
(I0
tS'b'
tRp2333
(I1
(tg9
I00
S'\xe4h\xb6\xc0'
tbs(g2
g197
tp2334
g5
(g6
(I0
tS'b'
tRp2335
(I1
(tg9
I00
S'\xdfG?\xc1'
tbs(g135
g41
tp2336
g5
(g6
(I0
tS'b'
tRp2337
(I1
(tg9
I00
S'\x99\x0f\x18A'
tbs(g78
g111
tp2338
g5
(g6
(I0
tS'b'
tRp2339
(I1
(tg9
I00
S'[.\xf4?'
tbs(g194
g180
tp2340
g5
(g6
(I0
tS'b'
tRp2341
(I1
(tg9
I00
S'=\xd2\x88\xc0'
tbs(g180
g166
tp2342
g5
(g6
(I0
tS'b'
tRp2343
(I1
(tg9
I00
S'd\xed\x89\xc0'
tbs(g143
g19
tp2344
g5
(g6
(I0
tS'b'
tRp2345
(I1
(tg9
I00
S'd\xd7\xc8@'
tbs(g177
g359
tp2346
g5
(g6
(I0
tS'b'
tRp2347
(I1
(tg9
I00
S'\xad\x84/\xc1'
tbs(g2
g52
tp2348
g5
(g6
(I0
tS'b'
tRp2349
(I1
(tg9
I00
S'\xef\xf7\xa0\xc0'
tbs(g163
g173
tp2350
g5
(g6
(I0
tS'b'
tRp2351
(I1
(tg9
I00
S'\xf1\x1fI@'
tbs(g67
g18
tp2352
g5
(g6
(I0
tS'b'
tRp2353
(I1
(tg9
I00
S'~\x0cx@'
tbs(g95
g332
tp2354
g5
(g6
(I0
tS'b'
tRp2355
(I1
(tg9
I00
S'\xce$\xd9\xbf'
tbs(g25
g64
tp2356
g5
(g6
(I0
tS'b'
tRp2357
(I1
(tg9
I00
S'\x94\x94\xe5@'
tbs(g94
g25
tp2358
g5
(g6
(I0
tS'b'
tRp2359
(I1
(tg9
I00
S'\xffc4\xc1'
tbs(g71
g45
tp2360
g5
(g6
(I0
tS'b'
tRp2361
(I1
(tg9
I00
S'lsP\xc0'
tbs(g110
g166
tp2362
g5
(g6
(I0
tS'b'
tRp2363
(I1
(tg9
I00
S't\xa1\xea\xbe'
tbs(g15
g11
tp2364
g5
(g6
(I0
tS'b'
tRp2365
(I1
(tg9
I00
S'O\xab\xe4\xc0'
tbs(g30
g44
tp2366
g5
(g6
(I0
tS'b'
tRp2367
(I1
(tg9
I00
S'`\xb1\xfb\xc0'
tbs(g61
g126
tp2368
g5
(g6
(I0
tS'b'
tRp2369
(I1
(tg9
I00
S'\xf7\xd3;\xc0'
tbs(g61
g11
tp2370
g5
(g6
(I0
tS'b'
tRp2371
(I1
(tg9
I00
S'\xa7\x81m\xc1'
tbs(g55
g26
tp2372
g5
(g6
(I0
tS'b'
tRp2373
(I1
(tg9
I00
S'\x03i\xc2\xbf'
tbs(g67
g219
tp2374
g5
(g6
(I0
tS'b'
tRp2375
(I1
(tg9
I00
S'U\xf4\x81A'
tbs(g56
g82
tp2376
g5
(g6
(I0
tS'b'
tRp2377
(I1
(tg9
I00
S'*\x81cA'
tbs(g140
g129
tp2378
g5
(g6
(I0
tS'b'
tRp2379
(I1
(tg9
I00
S'{\x9e\xfa\xbf'
tbs(g177
g48
tp2380
g5
(g6
(I0
tS'b'
tRp2381
(I1
(tg9
I00
S'\xc5\xc6\xd6@'
tbs(g234
g194
tp2382
g5
(g6
(I0
tS'b'
tRp2383
(I1
(tg9
I00
S'\xa0\xe0\xe1\xbe'
tbs(g100
g91
tp2384
g5
(g6
(I0
tS'b'
tRp2385
(I1
(tg9
I00
S'\xfc{:\xc0'
tbs(g359
g10
tp2386
g5
(g6
(I0
tS'b'
tRp2387
(I1
(tg9
I00
S's9\xc7A'
tbs(g2
g48
tp2388
g5
(g6
(I0
tS'b'
tRp2389
(I1
(tg9
I00
S'\x19\xa62\xc0'
tbs(g219
g55
tp2390
g5
(g6
(I0
tS'b'
tRp2391
(I1
(tg9
I00
S'\x8e\xf2\xb8\xc1'
tbs(g48
g307
tp2392
g5
(g6
(I0
tS'b'
tRp2393
(I1
(tg9
I00
S'~\x8e\xe0\xc0'
tbs(g56
g123
tp2394
g5
(g6
(I0
tS'b'
tRp2395
(I1
(tg9
I00
S'\x9b\x88\xe1@'
tbs(g15
g174
tp2396
g5
(g6
(I0
tS'b'
tRp2397
(I1
(tg9
I00
S'm>#A'
tbs(g177
g197
tp2398
g5
(g6
(I0
tS'b'
tRp2399
(I1
(tg9
I00
S'N}\x9e?'
tbs(g22
g185
tp2400
g5
(g6
(I0
tS'b'
tRp2401
(I1
(tg9
I00
S'5\xbb\x90\xc0'
tbs(g55
g11
tp2402
g5
(g6
(I0
tS'b'
tRp2403
(I1
(tg9
I00
S'\xbb\xc63\xc0'
tbs(g71
g11
tp2404
g5
(g6
(I0
tS'b'
tRp2405
(I1
(tg9
I00
S'M\x06=\xc1'
tbs(g140
g14
tp2406
g5
(g6
(I0
tS'b'
tRp2407
(I1
(tg9
I00
S'=\xe2\xac?'
tbs(g126
g33
tp2408
g5
(g6
(I0
tS'b'
tRp2409
(I1
(tg9
I00
S'\x95 u@'
tbs(g219
g163
tp2410
g5
(g6
(I0
tS'b'
tRp2411
(I1
(tg9
I00
S'\xf8\xfbl\xc1'
tbs(g219
g33
tp2412
g5
(g6
(I0
tS'b'
tRp2413
(I1
(tg9
I00
S'\t\x07\xdb\xc0'
tbs(g105
g307
tp2414
g5
(g6
(I0
tS'b'
tRp2415
(I1
(tg9
I00
S'C\x85\x03@'
tbs(g2
g359
tp2416
g5
(g6
(I0
tS'b'
tRp2417
(I1
(tg9
I00
S'\xa3\xea\x92\xc1'
tbs(g140
g143
tp2418
g5
(g6
(I0
tS'b'
tRp2419
(I1
(tg9
I00
S'\x03\x87\x1e?'
tbs(g296
g34
tp2420
g5
(g6
(I0
tS'b'
tRp2421
(I1
(tg9
I00
S'^\xcf\\\xc1'
tbs(g30
g41
tp2422
g5
(g6
(I0
tS'b'
tRp2423
(I1
(tg9
I00
S'\xcf\xe2w\xc0'
tbs(g37
g166
tp2424
g5
(g6
(I0
tS'b'
tRp2425
(I1
(tg9
I00
S'WQw\xc1'
tbs(g52
g45
tp2426
g5
(g6
(I0
tS'b'
tRp2427
(I1
(tg9
I00
S'\x89R\x8e?'
tbs(g197
g91
tp2428
g5
(g6
(I0
tS'b'
tRp2429
(I1
(tg9
I00
S'\xf5\xfaq\xc0'
tbs(g51
g91
tp2430
g5
(g6
(I0
tS'b'
tRp2431
(I1
(tg9
I00
S'\xd2?\x87@'
tbs(g78
g56
tp2432
g5
(g6
(I0
tS'b'
tRp2433
(I1
(tg9
I00
S'\xd3FP\xc0'
tbs(g2
g70
tp2434
g5
(g6
(I0
tS'b'
tRp2435
(I1
(tg9
I00
S'\xd6\x0c\x8c\xc0'
tbs(g110
g197
tp2436
g5
(g6
(I0
tS'b'
tRp2437
(I1
(tg9
I00
S"'.\xfd?"
tbs(g105
g70
tp2438
g5
(g6
(I0
tS'b'
tRp2439
(I1
(tg9
I00
S'\x92V\x99@'
tbs(g105
g14
tp2440
g5
(g6
(I0
tS'b'
tRp2441
(I1
(tg9
I00
S'%\x8a<\xc0'
tbs(g81
g116
tp2442
g5
(g6
(I0
tS'b'
tRp2443
(I1
(tg9
I00
S'B\x8e\x8d@'
tbs(g14
g19
tp2444
g5
(g6
(I0
tS'b'
tRp2445
(I1
(tg9
I00
S'\xaa;\xfd@'
tbs(g61
g14
tp2446
g5
(g6
(I0
tS'b'
tRp2447
(I1
(tg9
I00
S'\x874\x11\xc1'
tbs(g180
g34
tp2448
g5
(g6
(I0
tS'b'
tRp2449
(I1
(tg9
I00
S'\x7f?3\xc1'
tbs(g95
g174
tp2450
g5
(g6
(I0
tS'b'
tRp2451
(I1
(tg9
I00
S'\xf4\xd4\x06@'
tbs(g22
g111
tp2452
g5
(g6
(I0
tS'b'
tRp2453
(I1
(tg9
I00
S'!b"@'
tbs(g194
g56
tp2454
g5
(g6
(I0
tS'b'
tRp2455
(I1
(tg9
I00
S'\x1d\xd5\xdc\xc0'
tbs(g94
g177
tp2456
g5
(g6
(I0
tS'b'
tRp2457
(I1
(tg9
I00
S'\x9b\x04\xcb\xc0'
tbs(g81
g173
tp2458
g5
(g6
(I0
tS'b'
tRp2459
(I1
(tg9
I00
S'c\x13b\xc0'
tbs(g51
g55
tp2460
g5
(g6
(I0
tS'b'
tRp2461
(I1
(tg9
I00
S'\xcft\xf1?'
tbs(g3
g173
tp2462
g5
(g6
(I0
tS'b'
tRp2463
(I1
(tg9
I00
S'\x11-\x15\xc0'
tbs(g81
g332
tp2464
g5
(g6
(I0
tS'b'
tRp2465
(I1
(tg9
I00
S'\xf8o\x83@'
tbs(g14
g71
tp2466
g5
(g6
(I0
tS'b'
tRp2467
(I1
(tg9
I00
S'\xdaOVA'
tbs(g219
g71
tp2468
g5
(g6
(I0
tS'b'
tRp2469
(I1
(tg9
I00
S'u\x8d(\xc1'
tbs(g44
g10
tp2470
g5
(g6
(I0
tS'b'
tRp2471
(I1
(tg9
I00
S'\xca\x17\xb6@'
tbs(g52
g307
tp2472
g5
(g6
(I0
tS'b'
tRp2473
(I1
(tg9
I00
S'\xfe\xcb\xbb\xc0'
tbs(g45
g332
tp2474
g5
(g6
(I0
tS'b'
tRp2475
(I1
(tg9
I00
S'j\x0f\x83\xbf'
tbs(g22
g64
tp2476
g5
(g6
(I0
tS'b'
tRp2477
(I1
(tg9
I00
S'\xb8n,@'
tbs(g18
g38
tp2478
g5
(g6
(I0
tS'b'
tRp2479
(I1
(tg9
I00
S'\xbb\x19\xf1@'
tbs(g22
g214
tp2480
g5
(g6
(I0
tS'b'
tRp2481
(I1
(tg9
I00
S'\xe7IE@'
tbs(g234
g126
tp2482
g5
(g6
(I0
tS'b'
tRp2483
(I1
(tg9
I00
S'\xfe0\x83\xc0'
tbs(g2
g234
tp2484
g5
(g6
(I0
tS'b'
tRp2485
(I1
(tg9
I00
S'\x8cZ\xc4\xc0'
tbs(g110
g19
tp2486
g5
(g6
(I0
tS'b'
tRp2487
(I1
(tg9
I00
S'[y\x18@'
tbs(g41
g100
tp2488
g5
(g6
(I0
tS'b'
tRp2489
(I1
(tg9
I00
S'\xcb\xaa\x8d\xc1'
tbs(g126
g197
tp2490
g5
(g6
(I0
tS'b'
tRp2491
(I1
(tg9
I00
S'\xfb\xf5\xce\xbf'
tbs(g14
g33
tp2492
g5
(g6
(I0
tS'b'
tRp2493
(I1
(tg9
I00
S'\xb5\xff?A'
tbs(g185
g332
tp2494
g5
(g6
(I0
tS'b'
tRp2495
(I1
(tg9
I00
S'\xc7\xf3*A'
tbs(g44
g219
tp2496
g5
(g6
(I0
tS'b'
tRp2497
(I1
(tg9
I00
S'\x04\xe3\xe3@'
tbs(g261
g3
tp2498
g5
(g6
(I0
tS'b'
tRp2499
(I1
(tg9
I00
S'\xcfT#\xc0'
tbs(g261
g110
tp2500
g5
(g6
(I0
tS'b'
tRp2501
(I1
(tg9
I00
S'0m\x89\xc0'
tbs(g94
g44
tp2502
g5
(g6
(I0
tS'b'
tRp2503
(I1
(tg9
I00
S'\xfc\x8f^?'
tbs(g140
g44
tp2504
g5
(g6
(I0
tS'b'
tRp2505
(I1
(tg9
I00
S'\x87\xa11A'
tbs(g126
g3
tp2506
g5
(g6
(I0
tS'b'
tRp2507
(I1
(tg9
I00
S'_:=\xc0'
tbs(g67
g26
tp2508
g5
(g6
(I0
tS'b'
tRp2509
(I1
(tg9
I00
S'\xe6?^\xbf'
tbs(g48
g163
tp2510
g5
(g6
(I0
tS'b'
tRp2511
(I1
(tg9
I00
S'i\xd2F\xc1'
tbs(g15
g173
tp2512
g5
(g6
(I0
tS'b'
tRp2513
(I1
(tg9
I00
S'\xe1H\xd5?'
tbs(g105
g81
tp2514
g5
(g6
(I0
tS'b'
tRp2515
(I1
(tg9
I00
S'\xbaS\x94@'
tbs(g52
g56
tp2516
g5
(g6
(I0
tS'b'
tRp2517
(I1
(tg9
I00
S'\x94\xc8\x1b\xc1'
tbs(g180
g78
tp2518
g5
(g6
(I0
tS'b'
tRp2519
(I1
(tg9
I00
S'\\\x0b\x06\xc0'
tbs(g51
g71
tp2520
g5
(g6
(I0
tS'b'
tRp2521
(I1
(tg9
I00
S'\xfd\xf2PA'
tbs(g135
g332
tp2522
g5
(g6
(I0
tS'b'
tRp2523
(I1
(tg9
I00
S'\xed,\x0eA'
tbs(g129
g55
tp2524
g5
(g6
(I0
tS'b'
tRp2525
(I1
(tg9
I00
S'\x94\x1d\xa1\xc0'
tbs(g41
g91
tp2526
g5
(g6
(I0
tS'b'
tRp2527
(I1
(tg9
I00
S'\n\x1f}\xc1'
tbs(g75
g44
tp2528
g5
(g6
(I0
tS'b'
tRp2529
(I1
(tg9
I00
S'\xce\xfbaA'
tbs(g105
g45
tp2530
g5
(g6
(I0
tS'b'
tRp2531
(I1
(tg9
I00
S'Y\x8b\x0cA'
tbs(g18
g15
tp2532
g5
(g6
(I0
tS'b'
tRp2533
(I1
(tg9
I00
S'Z\x0f\x9d@'
tbs(g152
g180
tp2534
g5
(g6
(I0
tS'b'
tRp2535
(I1
(tg9
I00
S'S\xe3\x1c@'
tbs(g197
g56
tp2536
g5
(g6
(I0
tS'b'
tRp2537
(I1
(tg9
I00
S'\x8d\x06\xdb\xc0'
tbs(g110
g33
tp2538
g5
(g6
(I0
tS'b'
tRp2539
(I1
(tg9
I00
S';\xbc\xe2@'
tbs(g110
g38
tp2540
g5
(g6
(I0
tS'b'
tRp2541
(I1
(tg9
I00
S'\xd3\xe0\x8b@'
tbs(g75
g307
tp2542
g5
(g6
(I0
tS'b'
tRp2543
(I1
(tg9
I00
S'\xd6g\xc8@'
tbs(g116
g129
tp2544
g5
(g6
(I0
tS'b'
tRp2545
(I1
(tg9
I00
S'\xc6\xdc\x8c\xc1'
tbs(g135
g129
tp2546
g5
(g6
(I0
tS'b'
tRp2547
(I1
(tg9
I00
S'M\x8d\x15\xc0'
tbs(g29
g15
tp2548
g5
(g6
(I0
tS'b'
tRp2549
(I1
(tg9
I00
S'YF\x06A'
tbs(g2
g14
tp2550
g5
(g6
(I0
tS'b'
tRp2551
(I1
(tg9
I00
S'hrU\xc1'
tbs(g135
g174
tp2552
g5
(g6
(I0
tS'b'
tRp2553
(I1
(tg9
I00
S'\xa9\xd8EA'
tbs(g219
g45
tp2554
g5
(g6
(I0
tS'b'
tRp2555
(I1
(tg9
I00
S'\xe12\xfb\xc0'
tbs(g55
g45
tp2556
g5
(g6
(I0
tS'b'
tRp2557
(I1
(tg9
I00
S'\xeb\xda`A'
tbs(g2
g11
tp2558
g5
(g6
(I0
tS'b'
tRp2559
(I1
(tg9
I00
S'\xa8ao\xc1'
tbs(g25
g81
tp2560
g5
(g6
(I0
tS'b'
tRp2561
(I1
(tg9
I00
S'E\xc94A'
tbs(g61
g70
tp2562
g5
(g6
(I0
tS'b'
tRp2563
(I1
(tg9
I00
S'\xbb\xc7Z\xc0'
tbs(g219
g70
tp2564
g5
(g6
(I0
tS'b'
tRp2565
(I1
(tg9
I00
S'x\xc0\xea\xc0'
tbs(g152
g132
tp2566
g5
(g6
(I0
tS'b'
tRp2567
(I1
(tg9
I00
S',\xb3\xbc>'
tbs(g22
g33
tp2568
g5
(g6
(I0
tS'b'
tRp2569
(I1
(tg9
I00
S'\xe2\xcb\xc0@'
tbs(g177
g143
tp2570
g5
(g6
(I0
tS'b'
tRp2571
(I1
(tg9
I00
S'g\xb4\xf0?'
tbs(g48
g95
tp2572
g5
(g6
(I0
tS'b'
tRp2573
(I1
(tg9
I00
S'f~\xa0\xbf'
tbs(g261
g22
tp2574
g5
(g6
(I0
tS'b'
tRp2575
(I1
(tg9
I00
S'mv.\xbe'
tbs(g29
g25
tp2576
g5
(g6
(I0
tS'b'
tRp2577
(I1
(tg9
I00
S'\x8d\x16\x90\xc0'
tbs(g14
g166
tp2578
g5
(g6
(I0
tS'b'
tRp2579
(I1
(tg9
I00
S'\xa1\xbb\x94@'
tbs(g14
g34
tp2580
g5
(g6
(I0
tS'b'
tRp2581
(I1
(tg9
I00
S'g\x9e\x0e\xc1'
tbs(g29
g38
tp2582
g5
(g6
(I0
tS'b'
tRp2583
(I1
(tg9
I00
S'\xbd\xed\rA'
tbs(g2
g123
tp2584
g5
(g6
(I0
tS'b'
tRp2585
(I1
(tg9
I00
S'\xaad\xeb\xc0'
tbs(g25
g3
tp2586
g5
(g6
(I0
tS'b'
tRp2587
(I1
(tg9
I00
S'\xb32\x04A'
tbs(g22
g55
tp2588
g5
(g6
(I0
tS'b'
tRp2589
(I1
(tg9
I00
S'4\x81\x80\xc0'
tbs(g75
g45
tp2590
g5
(g6
(I0
tS'b'
tRp2591
(I1
(tg9
I00
S'/\xfcaA'
tbs(g234
g143
tp2592
g5
(g6
(I0
tS'b'
tRp2593
(I1
(tg9
I00
S'l\x1e"\xc1'
tbs(g3
g359
tp2594
g5
(g6
(I0
tS'b'
tRp2595
(I1
(tg9
I00
S'-8c\xc1'
tbs(g18
g25
tp2596
g5
(g6
(I0
tS'b'
tRp2597
(I1
(tg9
I00
S'\xa6\xf5{\xc0'
tbs(g359
g33
tp2598
g5
(g6
(I0
tS'b'
tRp2599
(I1
(tg9
I00
S'SP\x81A'
tbs(g67
g95
tp2600
g5
(g6
(I0
tS'b'
tRp2601
(I1
(tg9
I00
S'Ep\x96A'
tbs(g2
g56
tp2602
g5
(g6
(I0
tS'b'
tRp2603
(I1
(tg9
I00
S'=\x96o\xc1'
tbs(g126
g56
tp2604
g5
(g6
(I0
tS'b'
tRp2605
(I1
(tg9
I00
S'7b:\xc1'
tbs(g140
g25
tp2606
g5
(g6
(I0
tS'b'
tRp2607
(I1
(tg9
I00
S'1\xc4\xcf\xc0'
tbs(g135
g78
tp2608
g5
(g6
(I0
tS'b'
tRp2609
(I1
(tg9
I00
S'&\xe1\xf5\xbf'
tbs(g166
g10
tp2610
g5
(g6
(I0
tS'b'
tRp2611
(I1
(tg9
I00
S'\xbf\x9ciA'
tbs(g29
g173
tp2612
g5
(g6
(I0
tS'b'
tRp2613
(I1
(tg9
I00
S'K0\xe9@'
tbs(g61
g41
tp2614
g5
(g6
(I0
tS'b'
tRp2615
(I1
(tg9
I00
S'\x9aC)@'
tbs(g129
g174
tp2616
g5
(g6
(I0
tS'b'
tRp2617
(I1
(tg9
I00
S'\xe1\xa35A'
tbs(g74
g173
tp2618
g5
(g6
(I0
tS'b'
tRp2619
(I1
(tg9
I00
S'0\xebJ\xc1'
tbs(g37
g173
tp2620
g5
(g6
(I0
tS'b'
tRp2621
(I1
(tg9
I00
S'F\xd4\x86\xc1'
tbs(g110
g52
tp2622
g5
(g6
(I0
tS'b'
tRp2623
(I1
(tg9
I00
S'k\x94\x03A'
tbs(g143
g82
tp2624
g5
(g6
(I0
tS'b'
tRp2625
(I1
(tg9
I00
S'@\x07%A'
tbs(g71
g214
tp2626
g5
(g6
(I0
tS'b'
tRp2627
(I1
(tg9
I00
S'\xfd\x8c\x00\xc1'
tbs(g234
g116
tp2628
g5
(g6
(I0
tS'b'
tRp2629
(I1
(tg9
I00
S'\x8e\x91\x8c@'
tbs(g81
g143
tp2630
g5
(g6
(I0
tS'b'
tRp2631
(I1
(tg9
I00
S'\xff\xa9\x14\xc1'
tbs(g177
g180
tp2632
g5
(g6
(I0
tS'b'
tRp2633
(I1
(tg9
I00
S'F$\xa0@'
tbs(g95
g100
tp2634
g5
(g6
(I0
tS'b'
tRp2635
(I1
(tg9
I00
S'-\xc8<\xc1'
tbs(g296
g82
tp2636
g5
(g6
(I0
tS'b'
tRp2637
(I1
(tg9
I00
S'Q\xb2\xf2?'
tbs(g44
g95
tp2638
g5
(g6
(I0
tS'b'
tRp2639
(I1
(tg9
I00
S'\x1f\xe6=@'
tbs(g194
g11
tp2640
g5
(g6
(I0
tS'b'
tRp2641
(I1
(tg9
I00
S'\xfd>_\xc1'
tbs(g132
g56
tp2642
g5
(g6
(I0
tS'b'
tRp2643
(I1
(tg9
I00
S'\xbe\x02\x8c\xc0'
tbs(g75
g56
tp2644
g5
(g6
(I0
tS'b'
tRp2645
(I1
(tg9
I00
S'\x0c\x19\xb1@'
tbs(g3
g78
tp2646
g5
(g6
(I0
tS'b'
tRp2647
(I1
(tg9
I00
S'\xb1\xc8\x1f\xc1'
tbs(g18
g185
tp2648
g5
(g6
(I0
tS'b'
tRp2649
(I1
(tg9
I00
S'\xf0\xf0\xd9\xc0'
tbs(g3
g14
tp2650
g5
(g6
(I0
tS'b'
tRp2651
(I1
(tg9
I00
S'\xfd\n\r\xc1'
tbs(g110
g332
tp2652
g5
(g6
(I0
tS'b'
tRp2653
(I1
(tg9
I00
S'"J\xc6@'
tbs(g177
g45
tp2654
g5
(g6
(I0
tS'b'
tRp2655
(I1
(tg9
I00
S'\xce\x9d\xf9@'
tbs(g61
g25
tp2656
g5
(g6
(I0
tS'b'
tRp2657
(I1
(tg9
I00
S'\x0c\xfa!\xc1'
tbs(g194
g33
tp2658
g5
(g6
(I0
tS'b'
tRp2659
(I1
(tg9
I00
S'i\x7f\xf8\xbf'
tbs(g152
g41
tp2660
g5
(g6
(I0
tS'b'
tRp2661
(I1
(tg9
I00
S'\x03\xd7\x0eA'
tbs(g22
g197
tp2662
g5
(g6
(I0
tS'b'
tRp2663
(I1
(tg9
I00
S'q\xf6\x88@'
tbs(g61
g197
tp2664
g5
(g6
(I0
tS'b'
tRp2665
(I1
(tg9
I00
S'\x8cv\x93\xc0'
tbs(g180
g332
tp2666
g5
(g6
(I0
tS'b'
tRp2667
(I1
(tg9
I00
S'@c\xac@'
tbs(g140
g135
tp2668
g5
(g6
(I0
tS'b'
tRp2669
(I1
(tg9
I00
S'\xc7\x11\xcc?'
tbs(g81
g14
tp2670
g5
(g6
(I0
tS'b'
tRp2671
(I1
(tg9
I00
S'-?C\xc1'
tbs(g132
g143
tp2672
g5
(g6
(I0
tS'b'
tRp2673
(I1
(tg9
I00
S'\x19\x98\xfd\xbf'
tbs(g95
g33
tp2674
g5
(g6
(I0
tS'b'
tRp2675
(I1
(tg9
I00
S'\x1f\x0f\x90?'
tbs(g67
g75
tp2676
g5
(g6
(I0
tS'b'
tRp2677
(I1
(tg9
I00
S'R\xee\xc9\xbf'
tbs(g180
g296
tp2678
g5
(g6
(I0
tS'b'
tRp2679
(I1
(tg9
I00
S'\xe5\xbc\x83@'
tbs(g194
g38
tp2680
g5
(g6
(I0
tS'b'
tRp2681
(I1
(tg9
I00
S'~\xe19\xc0'
tbs(g261
g19
tp2682
g5
(g6
(I0
tS'b'
tRp2683
(I1
(tg9
I00
S'/[\x05@'
tbs(g166
g129
tp2684
g5
(g6
(I0
tS'b'
tRp2685
(I1
(tg9
I00
S'\xe1\xe9X\xc0'
tbs(g29
g41
tp2686
g5
(g6
(I0
tS'b'
tRp2687
(I1
(tg9
I00
S'#\x0cLA'
tbs(g194
g75
tp2688
g5
(g6
(I0
tS'b'
tRp2689
(I1
(tg9
I00
S'o\x15\x93\xc1'
tbs(g55
g82
tp2690
g5
(g6
(I0
tS'b'
tRp2691
(I1
(tg9
I00
S'\xdb\xef\x7fA'
tbs(g29
g81
tp2692
g5
(g6
(I0
tS'b'
tRp2693
(I1
(tg9
I00
S'v\x1a.A'
tbs(g44
g82
tp2694
g5
(g6
(I0
tS'b'
tRp2695
(I1
(tg9
I00
S'\x83W\x12@'
tbs(g234
g29
tp2696
g5
(g6
(I0
tS'b'
tRp2697
(I1
(tg9
I00
S'\x94\x84P\xc1'
tbs(g74
g81
tp2698
g5
(g6
(I0
tS'b'
tRp2699
(I1
(tg9
I00
S'gU\x00\xc0'
tbs(g15
g33
tp2700
g5
(g6
(I0
tS'b'
tRp2701
(I1
(tg9
I00
S'\xfef\xa9@'
tbs(g234
g91
tp2702
g5
(g6
(I0
tS'b'
tRp2703
(I1
(tg9
I00
S'0\x876\xc1'
tbs(g129
g332
tp2704
g5
(g6
(I0
tS'b'
tRp2705
(I1
(tg9
I00
S'\n\xaa\xff@'
tbs(g48
g174
tp2706
g5
(g6
(I0
tS'b'
tRp2707
(I1
(tg9
I00
S'o\x1el@'
tbs(g163
g82
tp2708
g5
(g6
(I0
tS'b'
tRp2709
(I1
(tg9
I00
S'\x8bA?A'
tbs(g18
g81
tp2710
g5
(g6
(I0
tS'b'
tRp2711
(I1
(tg9
I00
S'\x88~\xe1@'
tbs(g56
g34
tp2712
g5
(g6
(I0
tS'b'
tRp2713
(I1
(tg9
I00
S'\xcb#\x16\xc1'
tbs(g219
g10
tp2714
g5
(g6
(I0
tS'b'
tRp2715
(I1
(tg9
I00
S'_/\xa4\xc0'
tbs(g197
g15
tp2716
g5
(g6
(I0
tS'b'
tRp2717
(I1
(tg9
I00
S'\xfau\x95\xbf'
tbs(g25
g307
tp2718
g5
(g6
(I0
tS'b'
tRp2719
(I1
(tg9
I00
S'h\xd4\xf7@'
tbs(g163
g307
tp2720
g5
(g6
(I0
tS'b'
tRp2721
(I1
(tg9
I00
S'\xcb\xaf}@'
tbs(g2
g163
tp2722
g5
(g6
(I0
tS'b'
tRp2723
(I1
(tg9
I00
S'\xbf\xeef\xc1'
tbs(g22
g44
tp2724
g5
(g6
(I0
tS'b'
tRp2725
(I1
(tg9
I00
S'z1\x99@'
tbs(g19
g56
tp2726
g5
(g6
(I0
tS'b'
tRp2727
(I1
(tg9
I00
S'\xad\xdf#\xc1'
tbs(g180
g64
tp2728
g5
(g6
(I0
tS'b'
tRp2729
(I1
(tg9
I00
S'\xe5\x96\xa2?'
tbs(g143
g95
tp2730
g5
(g6
(I0
tS'b'
tRp2731
(I1
(tg9
I00
S'\x86\xbb:A'
tbs(g94
g197
tp2732
g5
(g6
(I0
tS'b'
tRp2733
(I1
(tg9
I00
S'\x87r\xe8\xbf'
tbs(g135
g34
tp2734
g5
(g6
(I0
tS'b'
tRp2735
(I1
(tg9
I00
S'\x05\x89\x03\xc1'
tbs(g185
g56
tp2736
g5
(g6
(I0
tS'b'
tRp2737
(I1
(tg9
I00
S'\xa4_\x99@'
tbs(g194
g22
tp2738
g5
(g6
(I0
tS'b'
tRp2739
(I1
(tg9
I00
S'QA\xbf\xc0'
tbs(g30
g78
tp2740
g5
(g6
(I0
tS'b'
tRp2741
(I1
(tg9
I00
S'Un@\xc1'
tbs(g19
g10
tp2742
g5
(g6
(I0
tS'b'
tRp2743
(I1
(tg9
I00
S'\xe6\x99\xb7@'
tbs(g61
g55
tp2744
g5
(g6
(I0
tS'b'
tRp2745
(I1
(tg9
I00
S'Y~\x85\xc1'
tbs(g74
g116
tp2746
g5
(g6
(I0
tS'b'
tRp2747
(I1
(tg9
I00
S'\x01LZ@'
tbs(g29
g37
tp2748
g5
(g6
(I0
tS'b'
tRp2749
(I1
(tg9
I00
S'q\x11\x99A'
tbs(g75
g91
tp2750
g5
(g6
(I0
tS'b'
tRp2751
(I1
(tg9
I00
S'\x96|\x8a@'
tbs(g110
g82
tp2752
g5
(g6
(I0
tS'b'
tRp2753
(I1
(tg9
I00
S'\n-\x1eA'
tbs(g71
g111
tp2754
g5
(g6
(I0
tS'b'
tRp2755
(I1
(tg9
I00
S'\x9a\xf1\xb9\xc0'
tbs(g29
g116
tp2756
g5
(g6
(I0
tS'b'
tRp2757
(I1
(tg9
I00
S'\xb2\xa8pA'
tbs(g67
g38
tp2758
g5
(g6
(I0
tS'b'
tRp2759
(I1
(tg9
I00
S'\x14\xe5\x0cA'
tbs(g105
g74
tp2760
g5
(g6
(I0
tS'b'
tRp2761
(I1
(tg9
I00
S'\xee\xf7\xce@'
tbs(g22
g173
tp2762
g5
(g6
(I0
tS'b'
tRp2763
(I1
(tg9
I00
S'\x1d\xbb\x03@'
tbs(g126
g143
tp2764
g5
(g6
(I0
tS'b'
tRp2765
(I1
(tg9
I00
S'>H*\xc1'
tbs(g129
g15
tp2766
g5
(g6
(I0
tS'b'
tRp2767
(I1
(tg9
I00
S'\xa3!=@'
tbs(g52
g332
tp2768
g5
(g6
(I0
tS'b'
tRp2769
(I1
(tg9
I00
S'\xad\xea\x8b@'
tbs(g177
g25
tp2770
g5
(g6
(I0
tS'b'
tRp2771
(I1
(tg9
I00
S'<>+\xc1'
tbs(g116
g91
tp2772
g5
(g6
(I0
tS'b'
tRp2773
(I1
(tg9
I00
S'\x187j\xc1'
tbs(g37
g14
tp2774
g5
(g6
(I0
tS'b'
tRp2775
(I1
(tg9
I00
S'\x08\xb3\x91\xc1'
tbs(g71
g307
tp2776
g5
(g6
(I0
tS'b'
tRp2777
(I1
(tg9
I00
S'p\xf5\xf4\xc0'
tbs(g140
g94
tp2778
g5
(g6
(I0
tS'b'
tRp2779
(I1
(tg9
I00
S'<\xab\x1cA'
tbs(g359
g332
tp2780
g5
(g6
(I0
tS'b'
tRp2781
(I1
(tg9
I00
S'+\xe5\x98A'
tbs(g70
g10
tp2782
g5
(g6
(I0
tS'b'
tRp2783
(I1
(tg9
I00
S'D\xe1\xcf@'
tbs(g30
g166
tp2784
g5
(g6
(I0
tS'b'
tRp2785
(I1
(tg9
I00
S'\xfd/1\xc1'
tbs(g173
g26
tp2786
g5
(g6
(I0
tS'b'
tRp2787
(I1
(tg9
I00
S'\xac\xe50\xc1'
tbs(g152
g174
tp2788
g5
(g6
(I0
tS'b'
tRp2789
(I1
(tg9
I00
S'}8/A'
tbs(g129
g123
tp2790
g5
(g6
(I0
tS'b'
tRp2791
(I1
(tg9
I00
S'H\x89\xbf@'
tbs(g152
g48
tp2792
g5
(g6
(I0
tS'b'
tRp2793
(I1
(tg9
I00
S'\x1d\xb4g@'
tbs(g219
g41
tp2794
g5
(g6
(I0
tS'b'
tRp2795
(I1
(tg9
I00
S'\xbds&\xc0'
tbs(g180
g11
tp2796
g5
(g6
(I0
tS'b'
tRp2797
(I1
(tg9
I00
S'.d\x15\xc1'
tbs(g110
g214
tp2798
g5
(g6
(I0
tS'b'
tRp2799
(I1
(tg9
I00
S'i\xb3\x06@'
tbs(g48
g78
tp2800
g5
(g6
(I0
tS'b'
tRp2801
(I1
(tg9
I00
S'\xf3u3\xc1'
tbs(g359
g38
tp2802
g5
(g6
(I0
tS'b'
tRp2803
(I1
(tg9
I00
S"']jA"
tbs(g126
g29
tp2804
g5
(g6
(I0
tS'b'
tRp2805
(I1
(tg9
I00
S'-\xad-\xc1'
tbs(g94
g166
tp2806
g5
(g6
(I0
tS'b'
tRp2807
(I1
(tg9
I00
S'\x89W\xa6\xc0'
tbs(g19
g45
tp2808
g5
(g6
(I0
tS'b'
tRp2809
(I1
(tg9
I00
S'L\xef\xdd?'
tbs(g64
g214
tp2810
g5
(g6
(I0
tS'b'
tRp2811
(I1
(tg9
I00
S'^\x8f\x08\xc1'
tbs(g15
g111
tp2812
g5
(g6
(I0
tS'b'
tRp2813
(I1
(tg9
I00
S'\xd5\x1b\xbe?'
tbs(g67
g214
tp2814
g5
(g6
(I0
tS'b'
tRp2815
(I1
(tg9
I00
S'\xc6\x94\xfd@'
tbs(g261
g166
tp2816
g5
(g6
(I0
tS'b'
tRp2817
(I1
(tg9
I00
S'\x87\x8ah\xc0'
tbs(g261
g34
tp2818
g5
(g6
(I0
tS'b'
tRp2819
(I1
(tg9
I00
S'\xad`;\xc1'
tbs(g105
g37
tp2820
g5
(g6
(I0
tS'b'
tRp2821
(I1
(tg9
I00
S'\xfabnA'
tbs(g37
g163
tp2822
g5
(g6
(I0
tS'b'
tRp2823
(I1
(tg9
I00
S'\xc0\xde\x8b\xc1'
tbs(g81
g174
tp2824
g5
(g6
(I0
tS'b'
tRp2825
(I1
(tg9
I00
S'\xa2\x98\xd0@'
tbs(g173
g33
tp2826
g5
(g6
(I0
tS'b'
tRp2827
(I1
(tg9
I00
S'i\xed\xbc@'
tbs(g81
g41
tp2828
g5
(g6
(I0
tS'b'
tRp2829
(I1
(tg9
I00
S'\x99\xd4\x02A'
tbs(g33
g10
tp2830
g5
(g6
(I0
tS'b'
tRp2831
(I1
(tg9
I00
S'\xc5\x9a\xee@'
tbs(g48
g116
tp2832
g5
(g6
(I0
tS'b'
tRp2833
(I1
(tg9
I00
S'\x0cU\xa2@'
tbs(g261
g140
tp2834
g5
(g6
(I0
tS'b'
tRp2835
(I1
(tg9
I00
S'U\x9e\x06\xc1'
tbs(g123
g332
tp2836
g5
(g6
(I0
tS'b'
tRp2837
(I1
(tg9
I00
S'4\xb2E@'
tbs(g105
g11
tp2838
g5
(g6
(I0
tS'b'
tRp2839
(I1
(tg9
I00
S'\xfeY\x07\xc1'
tbs(g177
g82
tp2840
g5
(g6
(I0
tS'b'
tRp2841
(I1
(tg9
I00
S'd\xef\x11A'
tbs(g135
g55
tp2842
g5
(g6
(I0
tS'b'
tRp2843
(I1
(tg9
I00
S'\xae\xb3\x9b\xc0'
tbs(g234
g123
tp2844
g5
(g6
(I0
tS'b'
tRp2845
(I1
(tg9
I00
S'\x1a\xf12\xc0'
tbs(g30
g64
tp2846
g5
(g6
(I0
tS'b'
tRp2847
(I1
(tg9
I00
S'\xc5\xc1\x05\xc1'
tbs(g18
g152
tp2848
g5
(g6
(I0
tS'b'
tRp2849
(I1
(tg9
I00
S'\xb6\xe9\xd3@'
tbs(g132
g33
tp2850
g5
(g6
(I0
tS'b'
tRp2851
(I1
(tg9
I00
S'}\x9f\x0bA'
tbs(g30
g332
tp2852
g5
(g6
(I0
tS'b'
tRp2853
(I1
(tg9
I00
S'\x1a\xe8_\xc0'
tbs(g22
g34
tp2854
g5
(g6
(I0
tS'b'
tRp2855
(I1
(tg9
I00
S'ye\xd3\xc0'
tbs(g135
g33
tp2856
g5
(g6
(I0
tS'b'
tRp2857
(I1
(tg9
I00
S'\x0f\xba\x01A'
tbs(g163
g71
tp2858
g5
(g6
(I0
tS'b'
tRp2859
(I1
(tg9
I00
S'\x86^\rA'
tbs(g38
g123
tp2860
g5
(g6
(I0
tS'b'
tRp2861
(I1
(tg9
I00
S'\xb5\xee/\xbf'
tbs(g135
g45
tp2862
g5
(g6
(I0
tS'b'
tRp2863
(I1
(tg9
I00
S'Q\x95\tA'
tbs(g37
g129
tp2864
g5
(g6
(I0
tS'b'
tRp2865
(I1
(tg9
I00
S'\x9b\xb1\x9c\xc1'
tbs(g74
g56
tp2866
g5
(g6
(I0
tS'b'
tRp2867
(I1
(tg9
I00
S"\xb9\xf0'\xc1"
tbs(g135
g359
tp2868
g5
(g6
(I0
tS'b'
tRp2869
(I1
(tg9
I00
S'\xaf\xfc\x1a\xc1'
tbs(g185
g15
tp2870
g5
(g6
(I0
tS'b'
tRp2871
(I1
(tg9
I00
S'\x00w\x02A'
tbs(g219
g91
tp2872
g5
(g6
(I0
tS'b'
tRp2873
(I1
(tg9
I00
S'y\x11\x8b\xc1'
tbs(g123
g45
tp2874
g5
(g6
(I0
tS'b'
tRp2875
(I1
(tg9
I00
S',\t\xa8@'
tbs(g261
g18
tp2876
g5
(g6
(I0
tS'b'
tRp2877
(I1
(tg9
I00
S'\x1d\xfb\x19\xc0'
tbs(g3
g33
tp2878
g5
(g6
(I0
tS'b'
tRp2879
(I1
(tg9
I00
S'\xbb\xefE@'
tbs(g75
g180
tp2880
g5
(g6
(I0
tS'b'
tRp2881
(I1
(tg9
I00
S'K\xe2\x07A'
tbs(g56
g91
tp2882
g5
(g6
(I0
tS'b'
tRp2883
(I1
(tg9
I00
S"\x00l'\xc0"
tbs(g2
g166
tp2884
g5
(g6
(I0
tS'b'
tRp2885
(I1
(tg9
I00
S'7\x833\xc1'
tbs(g75
g123
tp2886
g5
(g6
(I0
tS'b'
tRp2887
(I1
(tg9
I00
S'*JLA'
tbs(g110
g30
tp2888
g5
(g6
(I0
tS'b'
tRp2889
(I1
(tg9
I00
S'+\xc1JA'
tbs(g261
g214
tp2890
g5
(g6
(I0
tS'b'
tRp2891
(I1
(tg9
I00
S'\x91\x07\x8d\xbf'
tbs(g359
g163
tp2892
g5
(g6
(I0
tS'b'
tRp2893
(I1
(tg9
I00
S'\xaa\x97\x13A'
tbs(g129
g52
tp2894
g5
(g6
(I0
tS'b'
tRp2895
(I1
(tg9
I00
S'f;\xcc@'
tbs(g74
g143
tp2896
g5
(g6
(I0
tS'b'
tRp2897
(I1
(tg9
I00
S'qs\r\xc1'
tbs(g94
g214
tp2898
g5
(g6
(I0
tS'b'
tRp2899
(I1
(tg9
I00
S'\xe8aK\xc0'
tbs(g110
g173
tp2900
g5
(g6
(I0
tS'b'
tRp2901
(I1
(tg9
I00
S'K\xf9\xa4@'
tbs(g18
g37
tp2902
g5
(g6
(I0
tS'b'
tRp2903
(I1
(tg9
I00
S'\x83\xc7\x95A'
tbs(g261
g296
tp2904
g5
(g6
(I0
tS'b'
tRp2905
(I1
(tg9
I00
S';\x0b\xfd?'
tbs(g152
g307
tp2906
g5
(g6
(I0
tS'b'
tRp2907
(I1
(tg9
I00
S'\xcb\x8dX?'
tbs(g94
g48
tp2908
g5
(g6
(I0
tS'b'
tRp2909
(I1
(tg9
I00
S"S'\xc9?"
tbs(g261
g126
tp2910
g5
(g6
(I0
tS'b'
tRp2911
(I1
(tg9
I00
S'\x823K@'
tbs(g94
g105
tp2912
g5
(g6
(I0
tS'b'
tRp2913
(I1
(tg9
I00
S'\xea\x83\xf1\xc0'
tbs(g110
g234
tp2914
g5
(g6
(I0
tS'b'
tRp2915
(I1
(tg9
I00
S'\x8cY\xbf@'
tbs(g100
g52
tp2916
g5
(g6
(I0
tS'b'
tRp2917
(I1
(tg9
I00
S'f\x10\x19A'
tbs(g132
g3
tp2918
g5
(g6
(I0
tS'b'
tRp2919
(I1
(tg9
I00
S'\xca#\x08@'
tbs(g152
g25
tp2920
g5
(g6
(I0
tS'b'
tRp2921
(I1
(tg9
I00
S'u\xba\xeb\xc0'
tbs(g132
g166
tp2922
g5
(g6
(I0
tS'b'
tRp2923
(I1
(tg9
I00
S'iK\x0f\xc0'
tbs(g70
g78
tp2924
g5
(g6
(I0
tS'b'
tRp2925
(I1
(tg9
I00
S'\x12\xc1\xcb\xc0'
tbs(g132
g74
tp2926
g5
(g6
(I0
tS'b'
tRp2927
(I1
(tg9
I00
S'\xd0@\xcc@'
tbs(g132
g197
tp2928
g5
(g6
(I0
tS'b'
tRp2929
(I1
(tg9
I00
S'3E @'
tbs(g126
g82
tp2930
g5
(g6
(I0
tS'b'
tRp2931
(I1
(tg9
I00
S'\x7fH\x96@'
tbs(g70
g91
tp2932
g5
(g6
(I0
tS'b'
tRp2933
(I1
(tg9
I00
S'\xa59!\xc1'
tbs(g30
g10
tp2934
g5
(g6
(I0
tS'b'
tRp2935
(I1
(tg9
I00
S',\x9d\xd6<'
tbs(g126
g91
tp2936
g5
(g6
(I0
tS'b'
tRp2937
(I1
(tg9
I00
S'\xca\xaa-\xc1'
tbs(g30
g180
tp2938
g5
(g6
(I0
tS'b'
tRp2939
(I1
(tg9
I00
S'\xfa\x9c(\xc1'
tbs(g180
g307
tp2940
g5
(g6
(I0
tS'b'
tRp2941
(I1
(tg9
I00
S'a\x8d\x9b\xbf'
tbs(g74
g111
tp2942
g5
(g6
(I0
tS'b'
tRp2943
(I1
(tg9
I00
S'\x80+\xc9\xc0'
tbs(g37
g123
tp2944
g5
(g6
(I0
tS'b'
tRp2945
(I1
(tg9
I00
S'\xf4\x9a\xfc\xc0'
tbs(g116
g214
tp2946
g5
(g6
(I0
tS'b'
tRp2947
(I1
(tg9
I00
S'vV[\xc1'
tbs(g105
g219
tp2948
g5
(g6
(I0
tS'b'
tRp2949
(I1
(tg9
I00
S'i=GA'
tbs(g55
g143
tp2950
g5
(g6
(I0
tS'b'
tRp2951
(I1
(tg9
I00
S'\xbcG\xea@'
tbs(g116
g111
tp2952
g5
(g6
(I0
tS'b'
tRp2953
(I1
(tg9
I00
S'\xd4\xeb@\xc1'
tbs(g219
g214
tp2954
g5
(g6
(I0
tS'b'
tRp2955
(I1
(tg9
I00
S'\xaeTE\xc1'
tbs(g74
g91
tp2956
g5
(g6
(I0
tS'b'
tRp2957
(I1
(tg9
I00
S'm\x89\x14\xc1'
tbs(g71
g82
tp2958
g5
(g6
(I0
tS'b'
tRp2959
(I1
(tg9
I00
S'\xd3\xfd\x1e@'
tbs(g67
g185
tp2960
g5
(g6
(I0
tS'b'
tRp2961
(I1
(tg9
I00
S'\xba\rv\xc0'
tbs(g140
g132
tp2962
g5
(g6
(I0
tS'b'
tRp2963
(I1
(tg9
I00
S'\x90\xa9\x82@'
tbs(g82
g45
tp2964
g5
(g6
(I0
tS'b'
tRp2965
(I1
(tg9
I00
S'\x07\xf4k\xc0'
tbs(g81
g359
tp2966
g5
(g6
(I0
tS'b'
tRp2967
(I1
(tg9
I00
S'\xed\x05\x8b\xc1'
tbs(g81
g100
tp2968
g5
(g6
(I0
tS'b'
tRp2969
(I1
(tg9
I00
S'\x13\x17\x1c\xc1'
tbs(g51
g132
tp2970
g5
(g6
(I0
tS'b'
tRp2971
(I1
(tg9
I00
S'\xad{\x0cA'
tbs(g51
g56
tp2972
g5
(g6
(I0
tS'b'
tRp2973
(I1
(tg9
I00
S'\x07\xb3\xc2@'
tbs(g116
g307
tp2974
g5
(g6
(I0
tS'b'
tRp2975
(I1
(tg9
I00
S'OA-\xc1'
tbs(g163
g10
tp2976
g5
(g6
(I0
tS'b'
tRp2977
(I1
(tg9
I00
S'\xa3\x8csA'
tbs(g67
g296
tp2978
g5
(g6
(I0
tS'b'
tRp2979
(I1
(tg9
I00
S'"\x17LA'
tbs(g110
g25
tp2980
g5
(g6
(I0
tS'b'
tRp2981
(I1
(tg9
I00
S'\x06N\x03\xc1'
tbs(g194
g111
tp2982
g5
(g6
(I0
tS'b'
tRp2983
(I1
(tg9
I00
S'\x1fV\xc7\xc0'
tbs(g94
g143
tp2984
g5
(g6
(I0
tS'b'
tRp2985
(I1
(tg9
I00
S'\x08\xb6\x06\xc1'
tbs(g37
g3
tp2986
g5
(g6
(I0
tS'b'
tRp2987
(I1
(tg9
I00
S'S\x9f\x87\xc1'
tbs(g2
g34
tp2988
g5
(g6
(I0
tS'b'
tRp2989
(I1
(tg9
I00
S'\xe0c~\xc1'
tbs(g61
g219
tp2990
g5
(g6
(I0
tS'b'
tRp2991
(I1
(tg9
I00
S'l\n\xad@'
tbs(g19
g82
tp2992
g5
(g6
(I0
tS'b'
tRp2993
(I1
(tg9
I00
S'p>!@'
tbs(g116
g296
tp2994
g5
(g6
(I0
tS'b'
tRp2995
(I1
(tg9
I00
S'=\xde)\xc1'
tbs(g82
g332
tp2996
g5
(g6
(I0
tS'b'
tRp2997
(I1
(tg9
I00
S'?t\xac\xbe'
tbs(g135
g15
tp2998
g5
(g6
(I0
tS'b'
tRp2999
(I1
(tg9
I00
S',G\x91@'
tbs(g194
g64
tp3000
g5
(g6
(I0
tS'b'
tRp3001
(I1
(tg9
I00
S'\xe4\xafZ\xc0'
tbs(g126
g116
tp3002
g5
(g6
(I0
tS'b'
tRp3003
(I1
(tg9
I00
S"kk'A"
tbs(g14
g56
tp3004
g5
(g6
(I0
tS'b'
tRp3005
(I1
(tg9
I00
S'G]\x9e='
tbs(g129
g82
tp3006
g5
(g6
(I0
tS'b'
tRp3007
(I1
(tg9
I00
S'mj\xd5@'
tbs(g2
g44
tp3008
g5
(g6
(I0
tS'b'
tRp3009
(I1
(tg9
I00
S'i;\xa9\xc0'
tbs(g261
g332
tp3010
g5
(g6
(I0
tS'b'
tRp3011
(I1
(tg9
I00
S'Sa\xe7@'
tbs(g14
g173
tp3012
g5
(g6
(I0
tS'b'
tRp3013
(I1
(tg9
I00
S'\xaf\xe2IA'
tbs(g51
g61
tp3014
g5
(g6
(I0
tS'b'
tRp3015
(I1
(tg9
I00
S'C\xb5*A'
tbs(g143
g52
tp3016
g5
(g6
(I0
tS'b'
tRp3017
(I1
(tg9
I00
S'\xc5\x18\x1aA'
tbs(g14
g82
tp3018
g5
(g6
(I0
tS'b'
tRp3019
(I1
(tg9
I00
S'\x0f\x9a}A'
tbs(g359
g296
tp3020
g5
(g6
(I0
tS'b'
tRp3021
(I1
(tg9
I00
S'\xa2G\x87A'
tbs(g18
g3
tp3022
g5
(g6
(I0
tS'b'
tRp3023
(I1
(tg9
I00
S'\xa2 \xf9@'
tbs(g81
g11
tp3024
g5
(g6
(I0
tS'b'
tRp3025
(I1
(tg9
I00
S'\x02X8\xc1'
tbs(g234
g56
tp3026
g5
(g6
(I0
tS'b'
tRp3027
(I1
(tg9
I00
S'+\xc4E\xc1'
tbs(g359
g70
tp3028
g5
(g6
(I0
tS'b'
tRp3029
(I1
(tg9
I00
S' \xa1aA'
tbs(g110
g116
tp3030
g5
(g6
(I0
tS'b'
tRp3031
(I1
(tg9
I00
S'\x9b\xb6\xe7@'
tbs(g52
g111
tp3032
g5
(g6
(I0
tS'b'
tRp3033
(I1
(tg9
I00
S'\x9e.\xae\xc0'
tbs(g132
g180
tp3034
g5
(g6
(I0
tS'b'
tRp3035
(I1
(tg9
I00
S'/\x18\xd6?'
tbs(g44
g64
tp3036
g5
(g6
(I0
tS'b'
tRp3037
(I1
(tg9
I00
S'\xcc\xd9E\xc0'
tbs(g116
g15
tp3038
g5
(g6
(I0
tS'b'
tRp3039
(I1
(tg9
I00
S'^x[\xc1'
tbs(g185
g70
tp3040
g5
(g6
(I0
tS'b'
tRp3041
(I1
(tg9
I00
S'>_EA'
tbs(g129
g71
tp3042
g5
(g6
(I0
tS'b'
tRp3043
(I1
(tg9
I00
S'\xa0\xfc0@'
tbs(g197
g214
tp3044
g5
(g6
(I0
tS'b'
tRp3045
(I1
(tg9
I00
S'\x88\x7fZ\xc0'
tbs(g29
g332
tp3046
g5
(g6
(I0
tS'b'
tRp3047
(I1
(tg9
I00
S'[\xe34A'
tbs(g135
g56
tp3048
g5
(g6
(I0
tS'b'
tRp3049
(I1
(tg9
I00
S'Pd2@'
tbs(g75
g11
tp3050
g5
(g6
(I0
tS'b'
tRp3051
(I1
(tg9
I00
S'5\x8d\x05\xc0'
tbs(g359
g307
tp3052
g5
(g6
(I0
tS'b'
tRp3053
(I1
(tg9
I00
S'\x8e\xba\xe8@'
tbs(g38
g71
tp3054
g5
(g6
(I0
tS'b'
tRp3055
(I1
(tg9
I00
S'\xd2\x98B@'
tbs(g105
g15
tp3056
g5
(g6
(I0
tS'b'
tRp3057
(I1
(tg9
I00
S' \x04\x89@'
tbs(g296
g174
tp3058
g5
(g6
(I0
tS'b'
tRp3059
(I1
(tg9
I00
S'\xc9GT@'
tbs(g29
g296
tp3060
g5
(g6
(I0
tS'b'
tRp3061
(I1
(tg9
I00
S'\xc7\xb0\x18A'
tbs(g197
g296
tp3062
g5
(g6
(I0
tS'b'
tRp3063
(I1
(tg9
I00
S'\x9b\xa6\xa6@'
tbs(g56
g214
tp3064
g5
(g6
(I0
tS'b'
tRp3065
(I1
(tg9
I00
S'J\xf7\xc7?'
tbs(g219
g26
tp3066
g5
(g6
(I0
tS'b'
tRp3067
(I1
(tg9
I00
S'\x87\x9b\x85\xc1'
tbs(g18
g48
tp3068
g5
(g6
(I0
tS'b'
tRp3069
(I1
(tg9
I00
S'\x87\xafZA'
tbs(g3
g332
tp3070
g5
(g6
(I0
tS'b'
tRp3071
(I1
(tg9
I00
S'\x85#s@'
tbs(g194
g15
tp3072
g5
(g6
(I0
tS'b'
tRp3073
(I1
(tg9
I00
S'\xb3\x8eL\xc0'
tbs(g177
g74
tp3074
g5
(g6
(I0
tS'b'
tRp3075
(I1
(tg9
I00
S'\xc3-_@'
tbs(g185
g52
tp3076
g5
(g6
(I0
tS'b'
tRp3077
(I1
(tg9
I00
S'\xbaA\xf8@'
tbs(g166
g100
tp3078
g5
(g6
(I0
tS'b'
tRp3079
(I1
(tg9
I00
S'\xc0\xfc\xd8\xbf'
tbs(g110
g81
tp3080
g5
(g6
(I0
tS'b'
tRp3081
(I1
(tg9
I00
S'\xfe1\x9d@'
tbs(g140
g105
tp3082
g5
(g6
(I0
tS'b'
tRp3083
(I1
(tg9
I00
S'\x9bW\xda?'
tbs(g94
g126
tp3084
g5
(g6
(I0
tS'b'
tRp3085
(I1
(tg9
I00
S'4\x13L\xc0'
tbs(g41
g56
tp3086
g5
(g6
(I0
tS'b'
tRp3087
(I1
(tg9
I00
S'\xcd\x05`\xc1'
tbs(g94
g180
tp3088
g5
(g6
(I0
tS'b'
tRp3089
(I1
(tg9
I00
S'\xf5\xc8,\xc0'
tbs(g22
g56
tp3090
g5
(g6
(I0
tS'b'
tRp3091
(I1
(tg9
I00
S'|p<\xbf'
tbs(g3
g10
tp3092
g5
(g6
(I0
tS'b'
tRp3093
(I1
(tg9
I00
S'\xc3\n=A'
tbs(g132
g135
tp3094
g5
(g6
(I0
tS'b'
tRp3095
(I1
(tg9
I00
S'\x87B\x96\xc0'
tbs(g105
g180
tp3096
g5
(g6
(I0
tS'b'
tRp3097
(I1
(tg9
I00
S'\ri%@'
tbs(g140
g177
tp3098
g5
(g6
(I0
tS'b'
tRp3099
(I1
(tg9
I00
S'3\xf0\x16@'
tbs(g25
g74
tp3100
g5
(g6
(I0
tS'b'
tRp3101
(I1
(tg9
I00
S'q\x96\xec@'
tbs(g30
g219
tp3102
g5
(g6
(I0
tS'b'
tRp3103
(I1
(tg9
I00
S'\x02Q\x8b\xbe'
tbs(g44
g26
tp3104
g5
(g6
(I0
tS'b'
tRp3105
(I1
(tg9
I00
S'\x08X!\xc1'
tbs(g22
g82
tp3106
g5
(g6
(I0
tS'b'
tRp3107
(I1
(tg9
I00
S'\xd0\x83\xf7@'
tbs(g110
g29
tp3108
g5
(g6
(I0
tS'b'
tRp3109
(I1
(tg9
I00
S'\xd4\xe2\x91\xc0'
tbs(g14
g26
tp3110
g5
(g6
(I0
tS'b'
tRp3111
(I1
(tg9
I00
S'W\xae\xae\xc0'
tbs(g116
g26
tp3112
g5
(g6
(I0
tS'b'
tRp3113
(I1
(tg9
I00
S'\x105d\xc1'
tbs(g152
g143
tp3114
g5
(g6
(I0
tS'b'
tRp3115
(I1
(tg9
I00
S'\x01|j\xc0'
tbs(g44
g163
tp3116
g5
(g6
(I0
tS'b'
tRp3117
(I1
(tg9
I00
S't\xb8\xb4\xc0'
tbs(g64
g307
tp3118
g5
(g6
(I0
tS'b'
tRp3119
(I1
(tg9
I00
S'T\xe7\xb9\xc0'
tbs(g143
g91
tp3120
g5
(g6
(I0
tS'b'
tRp3121
(I1
(tg9
I00
S'[\xb5\t\xc0'
tbs(g75
g64
tp3122
g5
(g6
(I0
tS'b'
tRp3123
(I1
(tg9
I00
S'\x97\x10.A'
tbs(g3
g52
tp3124
g5
(g6
(I0
tS'b'
tRp3125
(I1
(tg9
I00
S'\xde]\xec@'
tbs(g132
g78
tp3126
g5
(g6
(I0
tS'b'
tRp3127
(I1
(tg9
I00
S'\xd9\x82#\xc0'
tbs(g126
g75
tp3128
g5
(g6
(I0
tS'b'
tRp3129
(I1
(tg9
I00
S'\x08\x9a\x8b\xc1'
tbs(g14
g296
tp3130
g5
(g6
(I0
tS'b'
tRp3131
(I1
(tg9
I00
S'\x19+gA'
tbs(g194
g25
tp3132
g5
(g6
(I0
tS'b'
tRp3133
(I1
(tg9
I00
S'b\x959\xc1'
tbs(g261
g234
tp3134
g5
(g6
(I0
tS'b'
tRp3135
(I1
(tg9
I00
S'\xf3 \xa8@'
tbs(g140
g307
tp3136
g5
(g6
(I0
tS'b'
tRp3137
(I1
(tg9
I00
S'\xfe9\x93@'
tbs(g140
g64
tp3138
g5
(g6
(I0
tS'b'
tRp3139
(I1
(tg9
I00
S'\x01X\x8e@'
tbs(g70
g174
tp3140
g5
(g6
(I0
tS'b'
tRp3141
(I1
(tg9
I00
S'\x95>\x91@'
tbs(g94
g64
tp3142
g5
(g6
(I0
tS'b'
tRp3143
(I1
(tg9
I00
S'<\xe4\xbe\xc0'
tbs(g37
g71
tp3144
g5
(g6
(I0
tS'b'
tRp3145
(I1
(tg9
I00
S'p\xc0\x1f\xc1'
tbs(g26
g11
tp3146
g5
(g6
(I0
tS'b'
tRp3147
(I1
(tg9
I00
S'\x83\xd5\xa1\xbe'
tbs(g74
g166
tp3148
g5
(g6
(I0
tS'b'
tRp3149
(I1
(tg9
I00
S'#\x85\xdf\xc0'
tbs(g30
g45
tp3150
g5
(g6
(I0
tS'b'
tRp3151
(I1
(tg9
I00
S'\x06\x18\x19\xc0'
tbs(g10
g174
tp3152
g5
(g6
(I0
tS'b'
tRp3153
(I1
(tg9
I00
S"\xbc\x95'\xc0"
tbs(g296
g55
tp3154
g5
(g6
(I0
tS'b'
tRp3155
(I1
(tg9
I00
S'\x9f\xeaF\xc1'
tbs(g51
g26
tp3156
g5
(g6
(I0
tS'b'
tRp3157
(I1
(tg9
I00
S'\x04&\xb8>'
tbs(g48
g52
tp3158
g5
(g6
(I0
tS'b'
tRp3159
(I1
(tg9
I00
S'|\x85\x19?'
tbs(g105
g214
tp3160
g5
(g6
(I0
tS'b'
tRp3161
(I1
(tg9
I00
S'=\x10\xbb\xbf'
tbs(g29
g19
tp3162
g5
(g6
(I0
tS'b'
tRp3163
(I1
(tg9
I00
S'+T\x06A'
tbs(g2
g15
tp3164
g5
(g6
(I0
tS'b'
tRp3165
(I1
(tg9
I00
S'V\x92>\xc1'
tbs(g116
g95
tp3166
g5
(g6
(I0
tS'b'
tRp3167
(I1
(tg9
I00
S'\x12-\xde\xc0'
tbs(g81
g38
tp3168
g5
(g6
(I0
tS'b'
tRp3169
(I1
(tg9
I00
S'\xd2\xd5,\xc0'
tbs(g95
g123
tp3170
g5
(g6
(I0
tS'b'
tRp3171
(I1
(tg9
I00
S'\xe9\xaa\xcb\xc0'
tbs(g94
g82
tp3172
g5
(g6
(I0
tS'b'
tRp3173
(I1
(tg9
I00
S'Wh/@'
tbs(g75
g219
tp3174
g5
(g6
(I0
tS'b'
tRp3175
(I1
(tg9
I00
S'W\x89\xb1A'
tbs(g140
g11
tp3176
g5
(g6
(I0
tS'b'
tRp3177
(I1
(tg9
I00
S'\xb5m\x12\xc1'
tbs(g29
g11
tp3178
g5
(g6
(I0
tS'b'
tRp3179
(I1
(tg9
I00
S'VZ\x92\xc0'
tbs(g33
g82
tp3180
g5
(g6
(I0
tS'b'
tRp3181
(I1
(tg9
I00
S'k\x8a\x16@'
tbs(g105
g194
tp3182
g5
(g6
(I0
tS'b'
tRp3183
(I1
(tg9
I00
S'a\x8b\x9f@'
tbs(g38
g10
tp3184
g5
(g6
(I0
tS'b'
tRp3185
(I1
(tg9
I00
S"\xd5\xb3'A"
tbs(g25
g332
tp3186
g5
(g6
(I0
tS'b'
tRp3187
(I1
(tg9
I00
S'E\xdc>A'
tbs(g194
g52
tp3188
g5
(g6
(I0
tS'b'
tRp3189
(I1
(tg9
I00
S"';V?"
tbs(g152
g332
tp3190
g5
(g6
(I0
tS'b'
tRp3191
(I1
(tg9
I00
S'\xca\xf9\xe3@'
tbs(g197
g185
tp3192
g5
(g6
(I0
tS'b'
tRp3193
(I1
(tg9
I00
S'j\xda\x05\xc1'
tbs(g67
g173
tp3194
g5
(g6
(I0
tS'b'
tRp3195
(I1
(tg9
I00
S'\xb3\x9e\x04A'
tbs(g194
g82
tp3196
g5
(g6
(I0
tS'b'
tRp3197
(I1
(tg9
I00
S'\x01\xebA?'
tbs(g177
g166
tp3198
g5
(g6
(I0
tS'b'
tRp3199
(I1
(tg9
I00
S'\x01\x8f\xbe?'
tbs(g29
g123
tp3200
g5
(g6
(I0
tS'b'
tRp3201
(I1
(tg9
I00
S'\xc5\xe1\x02A'
tbs(g30
g307
tp3202
g5
(g6
(I0
tS'b'
tRp3203
(I1
(tg9
I00
S'\x03\x05>\xc1'
tbs(g81
g296
tp3204
g5
(g6
(I0
tS'b'
tRp3205
(I1
(tg9
I00
S'1\xd7:\xc0'
tbs(g95
g82
tp3206
g5
(g6
(I0
tS'b'
tRp3207
(I1
(tg9
I00
S'\x88}\x13>'
tbs(g74
g123
tp3208
g5
(g6
(I0
tS'b'
tRp3209
(I1
(tg9
I00
S'Ebo\xc0'
tbs(g166
g34
tp3210
g5
(g6
(I0
tS'b'
tRp3211
(I1
(tg9
I00
S'\xbfI\x17\xc1'
tbs(g132
g173
tp3212
g5
(g6
(I0
tS'b'
tRp3213
(I1
(tg9
I00
S'[\x1f\x92@'
tbs(g2
g29
tp3214
g5
(g6
(I0
tS'b'
tRp3215
(I1
(tg9
I00
S'\xe0\xa2P\xc1'
tbs(g30
g11
tp3216
g5
(g6
(I0
tS'b'
tRp3217
(I1
(tg9
I00
S'fo\x89\xc1'
tbs(g234
g132
tp3218
g5
(g6
(I0
tS'b'
tRp3219
(I1
(tg9
I00
S'"\x10\xcd\xc0'
tbs(g78
g91
tp3220
g5
(g6
(I0
tS'b'
tRp3221
(I1
(tg9
I00
S'\n+\xbd\xc0'
tbs(g25
g45
tp3222
g5
(g6
(I0
tS'b'
tRp3223
(I1
(tg9
I00
S'\xb0\xb9\xe2@'
tbs(g3
g26
tp3224
g5
(g6
(I0
tS'b'
tRp3225
(I1
(tg9
I00
S'\xf0\xdd\x00\xc1'
tbs(g132
g48
tp3226
g5
(g6
(I0
tS'b'
tRp3227
(I1
(tg9
I00
S'/\x07\xec@'
tbs(g359
g78
tp3228
g5
(g6
(I0
tS'b'
tRp3229
(I1
(tg9
I00
S'\xdd\xa3\xfb@'
tbs(g132
g194
tp3230
g5
(g6
(I0
tS'b'
tRp3231
(I1
(tg9
I00
S'\xa8|\xce@'
tbs(g234
g33
tp3232
g5
(g6
(I0
tS'b'
tRp3233
(I1
(tg9
I00
S'\xd6D\x96?'
tbs(g25
g70
tp3234
g5
(g6
(I0
tS'b'
tRp3235
(I1
(tg9
I00
S'\x8b\x90GA'
tbs(g307
g82
tp3236
g5
(g6
(I0
tS'b'
tRp3237
(I1
(tg9
I00
S'\xee\xa5\x14A'
tbs(g140
g74
tp3238
g5
(g6
(I0
tS'b'
tRp3239
(I1
(tg9
I00
S'\xeb\xa3\nA'
tbs(g140
g78
tp3240
g5
(g6
(I0
tS'b'
tRp3241
(I1
(tg9
I00
S'\xd8%\xc5?'
tbs(g52
g82
tp3242
g5
(g6
(I0
tS'b'
tRp3243
(I1
(tg9
I00
S'-\xe3h@'
tbs(g234
g55
tp3244
g5
(g6
(I0
tS'b'
tRp3245
(I1
(tg9
I00
S'Q\xcf\x87\xc1'
tbs(g143
g71
tp3246
g5
(g6
(I0
tS'b'
tRp3247
(I1
(tg9
I00
S'2U\x03A'
tbs(g14
g332
tp3248
g5
(g6
(I0
tS'b'
tRp3249
(I1
(tg9
I00
S'/\xc4OA'
tbs(g116
g332
tp3250
g5
(g6
(I0
tS'b'
tRp3251
(I1
(tg9
I00
S'-`\x10\xc1'
tbs(g163
g34
tp3252
g5
(g6
(I0
tS'b'
tRp3253
(I1
(tg9
I00
S'\x91\xb6\x04\xc1'
tbs(g48
g34
tp3254
g5
(g6
(I0
tS'b'
tRp3255
(I1
(tg9
I00
S'\xee\xecu\xc1'
tbs(g143
g123
tp3256
g5
(g6
(I0
tS'b'
tRp3257
(I1
(tg9
I00
S'dh\xe5@'
tbs(g126
g332
tp3258
g5
(g6
(I0
tS'b'
tRp3259
(I1
(tg9
I00
S'\xf0\x04?@'
tbs(g61
g123
tp3260
g5
(g6
(I0
tS'b'
tRp3261
(I1
(tg9
I00
S'K/!\xc0'
tbs(g105
g173
tp3262
g5
(g6
(I0
tS'b'
tRp3263
(I1
(tg9
I00
S'\xe1F[@'
tbs(g70
g123
tp3264
g5
(g6
(I0
tS'b'
tRp3265
(I1
(tg9
I00
S'\xe2\xfc\x00>'
tbs(g111
g332
tp3266
g5
(g6
(I0
tS'b'
tRp3267
(I1
(tg9
I00
S'\xdb\x92\xc5@'
tbs(g152
g64
tp3268
g5
(g6
(I0
tS'b'
tRp3269
(I1
(tg9
I00
S'$YV>'
tbs(g22
g15
tp3270
g5
(g6
(I0
tS'b'
tRp3271
(I1
(tg9
I00
S']\x94\x07@'
tbs(g37
g214
tp3272
g5
(g6
(I0
tS'b'
tRp3273
(I1
(tg9
I00
S'\xb1;W\xc1'
tbs(g2
g10
tp3274
g5
(g6
(I0
tS'b'
tRp3275
(I1
(tg9
I00
S'\xa7\xa8\x0f@'
tbs(g29
g45
tp3276
g5
(g6
(I0
tS'b'
tRp3277
(I1
(tg9
I00
S'\x93\x1d>A'
tbs(g94
g296
tp3278
g5
(g6
(I0
tS'b'
tRp3279
(I1
(tg9
I00
S'"\x18\xbb>'
tbs(g100
g111
tp3280
g5
(g6
(I0
tS'b'
tRp3281
(I1
(tg9
I00
S'\xb1\xed^@'
tbs(g29
g129
tp3282
g5
(g6
(I0
tS'b'
tRp3283
(I1
(tg9
I00
S'\tm\xba?'
tbs(g197
g174
tp3284
g5
(g6
(I0
tS'b'
tRp3285
(I1
(tg9
I00
S'\xde\xa3\xe9@'
tbs(g74
g129
tp3286
g5
(g6
(I0
tS'b'
tRp3287
(I1
(tg9
I00
S'.kI\xc1'
tbs(g219
g38
tp3288
g5
(g6
(I0
tS'b'
tRp3289
(I1
(tg9
I00
S'&\xb9*\xc1'
tbs(g94
g29
tp3290
g5
(g6
(I0
tS'b'
tRp3291
(I1
(tg9
I00
S'\x1b\xe8\x14\xc1'
tbs(g61
g78
tp3292
g5
(g6
(I0
tS'b'
tRp3293
(I1
(tg9
I00
S'\xe1@\x1f\xc1'
tbs(g296
g15
tp3294
g5
(g6
(I0
tS'b'
tRp3295
(I1
(tg9
I00
S"'S\xe6\xc0"
tbs(g296
g11
tp3296
g5
(g6
(I0
tS'b'
tRp3297
(I1
(tg9
I00
S'O\xd0.\xc1'
tbs(g177
g64
tp3298
g5
(g6
(I0
tS'b'
tRp3299
(I1
(tg9
I00
S'\xebLL@'
tbs(g22
g70
tp3300
g5
(g6
(I0
tS'b'
tRp3301
(I1
(tg9
I00
S'\xe5X\x96@'
tbs(g132
g185
tp3302
g5
(g6
(I0
tS'b'
tRp3303
(I1
(tg9
I00
S'\xc3\xd2\x1a\xc1'
tbs(g132
g34
tp3304
g5
(g6
(I0
tS'b'
tRp3305
(I1
(tg9
I00
S'T\xc2F\xc1'
tbs(g180
g14
tp3306
g5
(g6
(I0
tS'b'
tRp3307
(I1
(tg9
I00
S'\xfcP\xbf\xc0'
tbs(g234
g48
tp3308
g5
(g6
(I0
tS'b'
tRp3309
(I1
(tg9
I00
S'\x89\xab\xfb?'
tbs(g14
g307
tp3310
g5
(g6
(I0
tS'b'
tRp3311
(I1
(tg9
I00
S'\xf1`\xb2@'
tbs(g22
g180
tp3312
g5
(g6
(I0
tS'b'
tRp3313
(I1
(tg9
I00
S'3\x12^@'
tbs(g234
g41
tp3314
g5
(g6
(I0
tS'b'
tRp3315
(I1
(tg9
I00
S'\xc7s\x89@'
tbs(g152
g129
tp3316
g5
(g6
(I0
tS'b'
tRp3317
(I1
(tg9
I00
S'\x91\xe6\xda\xc0'
tbs(g22
g38
tp3318
g5
(g6
(I0
tS'b'
tRp3319
(I1
(tg9
I00
S'\xe5y]@'
tbs(g18
g64
tp3320
g5
(g6
(I0
tS'b'
tRp3321
(I1
(tg9
I00
S'\x0b\xfbc@'
tbs(g173
g34
tp3322
g5
(g6
(I0
tS'b'
tRp3323
(I1
(tg9
I00
S'g\xa3\x85\xc1'
tbs(g38
g19
tp3324
g5
(g6
(I0
tS'b'
tRp3325
(I1
(tg9
I00
S'<\xe7\x14@'
tbs(g197
g173
tp3326
g5
(g6
(I0
tS'b'
tRp3327
(I1
(tg9
I00
S'\x05\x8e!\xc0'
tbs(g55
g100
tp3328
g5
(g6
(I0
tS'b'
tRp3329
(I1
(tg9
I00
S'\x11\xd7\xd5@'
tbs(g152
g26
tp3330
g5
(g6
(I0
tS'b'
tRp3331
(I1
(tg9
I00
S'\x8d\xb8\x1e\xc1'
tbs(g140
g30
tp3332
g5
(g6
(I0
tS'b'
tRp3333
(I1
(tg9
I00
S'\xbbFIA'
tbs(g135
g25
tp3334
g5
(g6
(I0
tS'b'
tRp3335
(I1
(tg9
I00
S'\x1a\xb5\xce\xc0'
tbs(g152
g11
tp3336
g5
(g6
(I0
tS'b'
tRp3337
(I1
(tg9
I00
S'\xc6\x1bI\xc1'
tbs(g29
g307
tp3338
g5
(g6
(I0
tS'b'
tRp3339
(I1
(tg9
I00
S'\xbd\xe3q@'
tbs(g37
g91
tp3340
g5
(g6
(I0
tS'b'
tRp3341
(I1
(tg9
I00
S'\x8c\x15\x93\xc1'
tbs(g166
g19
tp3342
g5
(g6
(I0
tS'b'
tRp3343
(I1
(tg9
I00
S'\xdb\xfa\xbf@'
tbs(g234
g174
tp3344
g5
(g6
(I0
tS'b'
tRp3345
(I1
(tg9
I00
S'z\x00\x84@'
tbs(g94
g81
tp3346
g5
(g6
(I0
tS'b'
tRp3347
(I1
(tg9
I00
S'\x8dZa@'
tbs(g37
g64
tp3348
g5
(g6
(I0
tS'b'
tRp3349
(I1
(tg9
I00
S'\x8eK=\xc1'
tbs(g37
g19
tp3350
g5
(g6
(I0
tS'b'
tRp3351
(I1
(tg9
I00
S'b\xde\x13\xc1'
tbs(g105
g34
tp3352
g5
(g6
(I0
tS'b'
tRp3353
(I1
(tg9
I00
S'\xa3\x94\x0b\xc1'
tbs(g126
g174
tp3354
g5
(g6
(I0
tS'b'
tRp3355
(I1
(tg9
I00
S'\x81F\nA'
tbs(g163
g123
tp3356
g5
(g6
(I0
tS'b'
tRp3357
(I1
(tg9
I00
S'`N\xe4@'
tbs(g296
g64
tp3358
g5
(g6
(I0
tS'b'
tRp3359
(I1
(tg9
I00
S't\x1a\x98\xc0'
tbs(g110
g152
tp3360
g5
(g6
(I0
tS'b'
tRp3361
(I1
(tg9
I00
S'G\x9d\xf2>'
tbs(g296
g307
tp3362
g5
(g6
(I0
tS'b'
tRp3363
(I1
(tg9
I00
S'\x06l\x10\xc1'
tbs(g177
g163
tp3364
g5
(g6
(I0
tS'b'
tRp3365
(I1
(tg9
I00
S'\xe9=\xde\xc0'
tbs(g94
g37
tp3366
g5
(g6
(I0
tS'b'
tRp3367
(I1
(tg9
I00
S'\x8dZ-A'
tbs(g19
g111
tp3368
g5
(g6
(I0
tS'b'
tRp3369
(I1
(tg9
I00
S'krQ\xc0'
tbs(g44
g70
tp3370
g5
(g6
(I0
tS'b'
tRp3371
(I1
(tg9
I00
S'\x08\x03\x19@'
tbs(g152
g38
tp3372
g5
(g6
(I0
tS'b'
tRp3373
(I1
(tg9
I00
S'W\x95N@'
tbs(g132
g82
tp3374
g5
(g6
(I0
tS'b'
tRp3375
(I1
(tg9
I00
S'v\xc1\xfe@'
tbs(g197
g55
tp3376
g5
(g6
(I0
tS'b'
tRp3377
(I1
(tg9
I00
S'\xaa" \xc1'
tbs(g74
g22
tp3378
g5
(g6
(I0
tS'b'
tRp3379
(I1
(tg9
I00
S'6\xe0\xb0\xc0'
tbs(g126
g166
tp3380
g5
(g6
(I0
tS'b'
tRp3381
(I1
(tg9
I00
S'\x94d\xf5\xc0'
tbs(g61
g214
tp3382
g5
(g6
(I0
tS'b'
tRp3383
(I1
(tg9
I00
S'K\xeb\xd3\xc0'
tbs(g22
g26
tp3384
g5
(g6
(I0
tS'b'
tRp3385
(I1
(tg9
I00
S't\x1f\xd4\xbf'
tbs(g70
g45
tp3386
g5
(g6
(I0
tS'b'
tRp3387
(I1
(tg9
I00
S'\xceg\x8b@'
tbs(g48
g44
tp3388
g5
(g6
(I0
tS'b'
tRp3389
(I1
(tg9
I00
S'\x90\xb6\x8f\xc0'
tbs(g37
g296
tp3390
g5
(g6
(I0
tS'b'
tRp3391
(I1
(tg9
I00
S'\xe6\xd6r\xc1'
tbs(g180
g45
tp3392
g5
(g6
(I0
tS'b'
tRp3393
(I1
(tg9
I00
S'\ra\xdb@'
tbs(g75
g81
tp3394
g5
(g6
(I0
tS'b'
tRp3395
(I1
(tg9
I00
S'\xdf\x9aCA'
tbs(g75
g163
tp3396
g5
(g6
(I0
tS'b'
tRp3397
(I1
(tg9
I00
S'*\x08\x82@'
tbs(g110
g163
tp3398
g5
(g6
(I0
tS'b'
tRp3399
(I1
(tg9
I00
S'u\x01d\xc0'
tbs(g359
g19
tp3400
g5
(g6
(I0
tS'b'
tRp3401
(I1
(tg9
I00
S'\xd9\xf3NA'
tbs(g29
g74
tp3402
g5
(g6
(I0
tS'b'
tRp3403
(I1
(tg9
I00
S'8\xf2\x19A'
tbs(g44
g91
tp3404
g5
(g6
(I0
tS'b'
tRp3405
(I1
(tg9
I00
S'\x97N\r\xc1'
tbs(g74
g15
tp3406
g5
(g6
(I0
tS'b'
tRp3407
(I1
(tg9
I00
S'_9\xef\xc0'
tbs(g105
g25
tp3408
g5
(g6
(I0
tS'b'
tRp3409
(I1
(tg9
I00
S'|\x90\xd4\xc0'
tbs(g359
g64
tp3410
g5
(g6
(I0
tS'b'
tRp3411
(I1
(tg9
I00
S'3\xdc6A'
tbs(g51
g70
tp3412
g5
(g6
(I0
tS'b'
tRp3413
(I1
(tg9
I00
S'w\xa5\x19A'
tbs(g307
g45
tp3414
g5
(g6
(I0
tS'b'
tRp3415
(I1
(tg9
I00
S'\xc2\t\xc5@'
tbs(g100
g307
tp3416
g5
(g6
(I0
tS'b'
tRp3417
(I1
(tg9
I00
S'!V\x17@'
tbs(g126
g95
tp3418
g5
(g6
(I0
tS'b'
tRp3419
(I1
(tg9
I00
S'r\x9f\xe2@'
tbs(g126
g123
tp3420
g5
(g6
(I0
tS'b'
tRp3421
(I1
(tg9
I00
S'\x83?/\xbf'
tbs(g143
g332
tp3422
g5
(g6
(I0
tS'b'
tRp3423
(I1
(tg9
I00
S'j\xf54A'
tbs(g22
g359
tp3424
g5
(g6
(I0
tS'b'
tRp3425
(I1
(tg9
I00
S'e\x9f\xf3\xc0'
tbs(g2
g91
tp3426
g5
(g6
(I0
tS'b'
tRp3427
(I1
(tg9
I00
S'\xe7\xe1~\xc1'
tbs(g67
g74
tp3428
g5
(g6
(I0
tS'b'
tRp3429
(I1
(tg9
I00
S'n\x06_A'
tbs(g48
g82
tp3430
g5
(g6
(I0
tS'b'
tRp3431
(I1
(tg9
I00
S'\xfb.L@'
tbs(g261
g14
tp3432
g5
(g6
(I0
tS'b'
tRp3433
(I1
(tg9
I00
S'\x1f7\xe6\xc0'
tbs(g234
g26
tp3434
g5
(g6
(I0
tS'b'
tRp3435
(I1
(tg9
I00
S'\x8a M\xc1'
tbs(g143
g10
tp3436
g5
(g6
(I0
tS'b'
tRp3437
(I1
(tg9
I00
S'\xcb\x91bA'
tbs(g55
g70
tp3438
g5
(g6
(I0
tS'b'
tRp3439
(I1
(tg9
I00
S']\xd1\x0fA'
tbs(g129
g19
tp3440
g5
(g6
(I0
tS'b'
tRp3441
(I1
(tg9
I00
S'\xa5H\xf4?'
tbs(g61
g10
tp3442
g5
(g6
(I0
tS'b'
tRp3443
(I1
(tg9
I00
S'(\xd1\xa0@'
tbs(g261
g105
tp3444
g5
(g6
(I0
tS'b'
tRp3445
(I1
(tg9
I00
S'c\xde\x8a\xc0'
tbs(g81
g19
tp3446
g5
(g6
(I0
tS'b'
tRp3447
(I1
(tg9
I00
S's\xf3V\xc0'
tbs(g126
g14
tp3448
g5
(g6
(I0
tS'b'
tRp3449
(I1
(tg9
I00
S'\xb8\xbfW\xc1'
tbs(g48
g56
tp3450
g5
(g6
(I0
tS'b'
tRp3451
(I1
(tg9
I00
S'\xcb3(\xc1'
tbs(g67
g82
tp3452
g5
(g6
(I0
tS'b'
tRp3453
(I1
(tg9
I00
S'v+\x83A'
tbs(g132
g25
tp3454
g5
(g6
(I0
tS'b'
tRp3455
(I1
(tg9
I00
S'\xb4|\x0b\xc1'
tbs(g111
g34
tp3456
g5
(g6
(I0
tS'b'
tRp3457
(I1
(tg9
I00
S'p\x08\x0c\xc1'
tbs(g61
g81
tp3458
g5
(g6
(I0
tS'b'
tRp3459
(I1
(tg9
I00
S'w\xe54\xc0'
tbs(g110
g123
tp3460
g5
(g6
(I0
tS'b'
tRp3461
(I1
(tg9
I00
S'\xb2\xa0\\@'
tbs(g143
g64
tp3462
g5
(g6
(I0
tS'b'
tRp3463
(I1
(tg9
I00
S'v\x90\xab@'
tbs(g152
g37
tp3464
g5
(g6
(I0
tS'b'
tRp3465
(I1
(tg9
I00
S'O\x86cA'
tbs(g135
g37
tp3466
g5
(g6
(I0
tS'b'
tRp3467
(I1
(tg9
I00
S'\x9b\x1c\x8bA'
tbs(g152
g75
tp3468
g5
(g6
(I0
tS'b'
tRp3469
(I1
(tg9
I00
S'\xc0\x946\xc1'
tbs(g55
g15
tp3470
g5
(g6
(I0
tS'b'
tRp3471
(I1
(tg9
I00
S'\xd5\x11UA'
tbs(g123
g34
tp3472
g5
(g6
(I0
tS'b'
tRp3473
(I1
(tg9
I00
S'\xf1\xc4U\xc1'
tbs(g38
g45
tp3474
g5
(g6
(I0
tS'b'
tRp3475
(I1
(tg9
I00
S'\xc4\xaa\xce@'
tbs(g129
g70
tp3476
g5
(g6
(I0
tS'b'
tRp3477
(I1
(tg9
I00
S'\xec\xa6\x83@'
tbs(g75
g38
tp3478
g5
(g6
(I0
tS'b'
tRp3479
(I1
(tg9
I00
S'\x95m=A'
tbs(g91
g34
tp3480
g5
(g6
(I0
tS'b'
tRp3481
(I1
(tg9
I00
S'\xec\\\xc3\xc0'
tbs(g2
g143
tp3482
g5
(g6
(I0
tS'b'
tRp3483
(I1
(tg9
I00
S'\xac\xb3[\xc1'
tbs(g140
g234
tp3484
g5
(g6
(I0
tS'b'
tRp3485
(I1
(tg9
I00
S'\t\xa1\x17A'
tbs(g140
g55
tp3486
g5
(g6
(I0
tS'b'
tRp3487
(I1
(tg9
I00
S'\x17e\xe5\xc0'
tbs(g18
g52
tp3488
g5
(g6
(I0
tS'b'
tRp3489
(I1
(tg9
I00
S'\xa5q\x17A'
tbs(g33
g123
tp3490
g5
(g6
(I0
tS'b'
tRp3491
(I1
(tg9
I00
S'2\xff\x8c\xc0'
tbs(g95
g307
tp3492
g5
(g6
(I0
tS'b'
tRp3493
(I1
(tg9
I00
S'\xf2)-\xc1'
tbs(g94
g91
tp3494
g5
(g6
(I0
tS'b'
tRp3495
(I1
(tg9
I00
S'\xa6J\x15\xc1'
tbs(g18
g296
tp3496
g5
(g6
(I0
tS'b'
tRp3497
(I1
(tg9
I00
S'\xee\xcf\x19A'
tbs(g74
g185
tp3498
g5
(g6
(I0
tS'b'
tRp3499
(I1
(tg9
I00
S'\xe8\xfdY\xc1'
tbs(g75
g95
tp3500
g5
(g6
(I0
tS'b'
tRp3501
(I1
(tg9
I00
S'\x8c$\x9bA'
tbs(g140
g163
tp3502
g5
(g6
(I0
tS'b'
tRp3503
(I1
(tg9
I00
S'\xad\x8d\xde?'
tbs(g15
g100
tp3504
g5
(g6
(I0
tS'b'
tRp3505
(I1
(tg9
I00
S'w\x8f0\xc0'
tbs(g126
g100
tp3506
g5
(g6
(I0
tS'b'
tRp3507
(I1
(tg9
I00
S'\xfd\x10/\xc1'
tbs(g55
g38
tp3508
g5
(g6
(I0
tS'b'
tRp3509
(I1
(tg9
I00
S'\xdf\x135A'
tbs(g44
g129
tp3510
g5
(g6
(I0
tS'b'
tRp3511
(I1
(tg9
I00
S'\xc7.%\xc1'
tbs(g91
g174
tp3512
g5
(g6
(I0
tS'b'
tRp3513
(I1
(tg9
I00
S'm&1A'
tbs(g10
g45
tp3514
g5
(g6
(I0
tS'b'
tRp3515
(I1
(tg9
I00
S'\xe3\xfe\x8c\xc0'
tbs(g37
g78
tp3516
g5
(g6
(I0
tS'b'
tRp3517
(I1
(tg9
I00
S'\x90\xacm\xc1'
tbs(g25
g173
tp3518
g5
(g6
(I0
tS'b'
tRp3519
(I1
(tg9
I00
S'P~\xb0@'
tbs(g61
g194
tp3520
g5
(g6
(I0
tS'b'
tRp3521
(I1
(tg9
I00
S'Yv\xd0?'
tbs(g78
g71
tp3522
g5
(g6
(I0
tS'b'
tRp3523
(I1
(tg9
I00
S'w\xb2\x89@'
tbs(g18
g123
tp3524
g5
(g6
(I0
tS'b'
tRp3525
(I1
(tg9
I00
S'\xb6V\xb2@'
tbs(g61
g94
tp3526
g5
(g6
(I0
tS'b'
tRp3527
(I1
(tg9
I00
S'u\x83\xbb>'
tbs(g197
g71
tp3528
g5
(g6
(I0
tS'b'
tRp3529
(I1
(tg9
I00
S'\xf3\xb2W@'
tbs(g61
g18
tp3530
g5
(g6
(I0
tS'b'
tRp3531
(I1
(tg9
I00
S'\x94\xf4\x07\xc1'
tbs(g95
g11
tp3532
g5
(g6
(I0
tS'b'
tRp3533
(I1
(tg9
I00
S'Q\xcd{\xc1'
tbs(g185
g34
tp3534
g5
(g6
(I0
tS'b'
tRp3535
(I1
(tg9
I00
S'\xbfw\xf2?'
tbs(g261
g44
tp3536
g5
(g6
(I0
tS'b'
tRp3537
(I1
(tg9
I00
S'8%\xa8@'
tbs(g75
g214
tp3538
g5
(g6
(I0
tS'b'
tRp3539
(I1
(tg9
I00
S'\xce\xc9\xcf@'
tbs(g81
g15
tp3540
g5
(g6
(I0
tS'b'
tRp3541
(I1
(tg9
I00
S'\xd2\xa2\x1e\xc0'
tbs(g26
g82
tp3542
g5
(g6
(I0
tS'b'
tRp3543
(I1
(tg9
I00
S')\xa3BA'
tbs(g14
g78
tp3544
g5
(g6
(I0
tS'b'
tRp3545
(I1
(tg9
I00
S'\r\x94t@'
tbs(g105
g332
tp3546
g5
(g6
(I0
tS'b'
tRp3547
(I1
(tg9
I00
S'\xce;\xb7@'
tbs(g132
g70
tp3548
g5
(g6
(I0
tS'b'
tRp3549
(I1
(tg9
I00
S'\xd5\x0bu@'
tbs(g177
g185
tp3550
g5
(g6
(I0
tS'b'
tRp3551
(I1
(tg9
I00
S'\x81\r\x17\xc1'
tbs(g18
g163
tp3552
g5
(g6
(I0
tS'b'
tRp3553
(I1
(tg9
I00
S'\xbe\xa4k\xbf'
tbs(g296
g10
tp3554
g5
(g6
(I0
tS'b'
tRp3555
(I1
(tg9
I00
S'7R\x1fA'
tbs(g81
g45
tp3556
g5
(g6
(I0
tS'b'
tRp3557
(I1
(tg9
I00
S'\xca#\x88\xbf'
tbs(g152
g3
tp3558
g5
(g6
(I0
tS'b'
tRp3559
(I1
(tg9
I00
S'\x94/\x85?'
tbs(g180
g123
tp3560
g5
(g6
(I0
tS'b'
tRp3561
(I1
(tg9
I00
S'\x8fd\x0e@'
tbs(g19
g214
tp3562
g5
(g6
(I0
tS'b'
tRp3563
(I1
(tg9
I00
S'\xce\xb4p\xc0'
tbs(g81
g70
tp3564
g5
(g6
(I0
tS'b'
tRp3565
(I1
(tg9
I00
S'D+\x8d?'
tbs(g25
g166
tp3566
g5
(g6
(I0
tS'b'
tRp3567
(I1
(tg9
I00
S'\x08\xa6\x83@'
tbs(g55
g214
tp3568
g5
(g6
(I0
tS'b'
tRp3569
(I1
(tg9
I00
S'\x1a\x92\x15A'
tbs(g197
g143
tp3570
g5
(g6
(I0
tS'b'
tRp3571
(I1
(tg9
I00
S'\x0f\x1c\x8c\xc0'
tbs(g116
g56
tp3572
g5
(g6
(I0
tS'b'
tRp3573
(I1
(tg9
I00
S'r\xc2o\xc1'
tbs(g180
g185
tp3574
g5
(g6
(I0
tS'b'
tRp3575
(I1
(tg9
I00
S'\x9f\xe3\x0e\xc1'
tbs(g234
g19
tp3576
g5
(g6
(I0
tS'b'
tRp3577
(I1
(tg9
I00
S'\x8b\xa3\xd0\xbf'
tbs(g140
g52
tp3578
g5
(g6
(I0
tS'b'
tRp3579
(I1
(tg9
I00
S'\xb9m\x17A'
tbs(g126
g359
tp3580
g5
(g6
(I0
tS'b'
tRp3581
(I1
(tg9
I00
S'n9\x84\xc1'
tbs(g18
g94
tp3582
g5
(g6
(I0
tS'b'
tRp3583
(I1
(tg9
I00
S'\xa2\xc6\nA'
tbs(g105
g143
tp3584
g5
(g6
(I0
tS'b'
tRp3585
(I1
(tg9
I00
S'}\xe9\xf6\xbf'
tbs(g51
g78
tp3586
g5
(g6
(I0
tS'b'
tRp3587
(I1
(tg9
I00
S'e^\x8b@'
tbs(g110
g185
tp3588
g5
(g6
(I0
tS'b'
tRp3589
(I1
(tg9
I00
S'\x9f}\xfe\xc0'
tbs(g22
g219
tp3590
g5
(g6
(I0
tS'b'
tRp3591
(I1
(tg9
I00
S'\xe7\xe9*A'
tbs(g94
g75
tp3592
g5
(g6
(I0
tS'b'
tRp3593
(I1
(tg9
I00
S'\x7f\xbd\x8d\xc1'
tbs(g143
g100
tp3594
g5
(g6
(I0
tS'b'
tRp3595
(I1
(tg9
I00
S'\xcd>U@'
tbs(g132
g44
tp3596
g5
(g6
(I0
tS'b'
tRp3597
(I1
(tg9
I00
S'\xf5\xb2\x1dA'
tbs(g64
g91
tp3598
g5
(g6
(I0
tS'b'
tRp3599
(I1
(tg9
I00
S'+e\x04\xc1'
tbs(g194
g197
tp3600
g5
(g6
(I0
tS'b'
tRp3601
(I1
(tg9
I00
S'\xef\xf94\xc0'
tbs(g81
g307
tp3602
g5
(g6
(I0
tS'b'
tRp3603
(I1
(tg9
I00
S'<\xd0\xea\xc0'
tbs(g61
g163
tp3604
g5
(g6
(I0
tS'b'
tRp3605
(I1
(tg9
I00
S'C\x0c8\xc1'
tbs(g61
g2
tp3606
g5
(g6
(I0
tS'b'
tRp3607
(I1
(tg9
I00
S'\x83\xd3[@'
tbs(g51
g94
tp3608
g5
(g6
(I0
tS'b'
tRp3609
(I1
(tg9
I00
S'\xcf9.A'
tbs(g152
g91
tp3610
g5
(g6
(I0
tS'b'
tRp3611
(I1
(tg9
I00
S'\xcd*\xe1\xc0'
tbs(g14
g143
tp3612
g5
(g6
(I0
tS'b'
tRp3613
(I1
(tg9
I00
S',O)@'
tbs(g359
g45
tp3614
g5
(g6
(I0
tS'b'
tRp3615
(I1
(tg9
I00
S'\x83Y\x8bA'
tbs(g105
g100
tp3616
g5
(g6
(I0
tS'b'
tRp3617
(I1
(tg9
I00
S'eM\xd7?'
tbs(g48
g111
tp3618
g5
(g6
(I0
tS'b'
tRp3619
(I1
(tg9
I00
S'\xb4\xa0\xe4\xc0'
tbs(g143
g45
tp3620
g5
(g6
(I0
tS'b'
tRp3621
(I1
(tg9
I00
S'\xff\xe4(A'
tbs(g166
g33
tp3622
g5
(g6
(I0
tS'b'
tRp3623
(I1
(tg9
I00
S'm\x130A'
tbs(g135
g116
tp3624
g5
(g6
(I0
tS'b'
tRp3625
(I1
(tg9
I00
S'\x8c\xc00A'
tbs(g234
g219
tp3626
g5
(g6
(I0
tS'b'
tRp3627
(I1
(tg9
I00
S'\x1a8\x98@'
tbs(g30
g296
tp3628
g5
(g6
(I0
tS'b'
tRp3629
(I1
(tg9
I00
S'^\x07\xe8\xc0'
tbs(g2
g332
tp3630
g5
(g6
(I0
tS'b'
tRp3631
(I1
(tg9
I00
S'\x8c\x86\x9f\xc0'
tbs(g67
g100
tp3632
g5
(g6
(I0
tS'b'
tRp3633
(I1
(tg9
I00
S'\x15\x1f\\@'
tbs(g94
g38
tp3634
g5
(g6
(I0
tS'b'
tRp3635
(I1
(tg9
I00
S'\xc2)\x05\xc0'
tbs(g19
g34
tp3636
g5
(g6
(I0
tS'b'
tRp3637
(I1
(tg9
I00
S'\xc9\xa80\xc1'
tbs(g41
g359
tp3638
g5
(g6
(I0
tS'b'
tRp3639
(I1
(tg9
I00
S'\xbb@\x91\xc1'
tbs(g180
g129
tp3640
g5
(g6
(I0
tS'b'
tRp3641
(I1
(tg9
I00
S' \x14\x8b\xc0'
tbs(g135
g64
tp3642
g5
(g6
(I0
tS'b'
tRp3643
(I1
(tg9
I00
S'\x9b\xf6V@'
tbs(g48
g14
tp3644
g5
(g6
(I0
tS'b'
tRp3645
(I1
(tg9
I00
S'\x1d\x85A\xc1'
tbs(g15
g307
tp3646
g5
(g6
(I0
tS'b'
tRp3647
(I1
(tg9
I00
S'Ecs\xc0'
tbs(g135
g307
tp3648
g5
(g6
(I0
tS'b'
tRp3649
(I1
(tg9
I00
S'\x8eq\x89@'
tbs(g129
g95
tp3650
g5
(g6
(I0
tS'b'
tRp3651
(I1
(tg9
I00
S'\x15\xd6\x02A'
tbs(g359
g143
tp3652
g5
(g6
(I0
tS'b'
tRp3653
(I1
(tg9
I00
S'D\x8f3A'
tbs(g197
g64
tp3654
g5
(g6
(I0
tS'b'
tRp3655
(I1
(tg9
I00
S'JK!\xbe'
tbs(g135
g52
tp3656
g5
(g6
(I0
tS'b'
tRp3657
(I1
(tg9
I00
S'\xe3\xa1\x19A'
tbs(g29
g14
tp3658
g5
(g6
(I0
tS'b'
tRp3659
(I1
(tg9
I00
S'\t\x94\xbe\xbf'
tbs(g55
g71
tp3660
g5
(g6
(I0
tS'b'
tRp3661
(I1
(tg9
I00
S'M)NA'
tbs(g197
g52
tp3662
g5
(g6
(I0
tS'b'
tRp3663
(I1
(tg9
I00
S'8\xca\x8a@'
tbs(g110
g78
tp3664
g5
(g6
(I0
tS'b'
tRp3665
(I1
(tg9
I00
S'\xc7\xeb3\xc0'
tbs(g75
g332
tp3666
g5
(g6
(I0
tS'b'
tRp3667
(I1
(tg9
I00
S'\xcbB\\A'
tbs(g2
g135
tp3668
g5
(g6
(I0
tS'b'
tRp3669
(I1
(tg9
I00
S'\xd1\xe7 \xc1'
tbs(g94
g33
tp3670
g5
(g6
(I0
tS'b'
tRp3671
(I1
(tg9
I00
S';\xbf\x8e?'
tbs(g71
g34
tp3672
g5
(g6
(I0
tS'b'
tRp3673
(I1
(tg9
I00
S'\xa5iP\xc1'
tbs(g91
g45
tp3674
g5
(g6
(I0
tS'b'
tRp3675
(I1
(tg9
I00
S'zX\xee@'
tbs(g55
g174
tp3676
g5
(g6
(I0
tS'b'
tRp3677
(I1
(tg9
I00
S'\xa3\x07\x95A'
tbs(g71
g174
tp3678
g5
(g6
(I0
tS'b'
tRp3679
(I1
(tg9
I00
S'^7\x86@'
tbs(g135
g111
tp3680
g5
(g6
(I0
tS'b'
tRp3681
(I1
(tg9
I00
S'_\x082@'
tbs(g163
g70
tp3682
g5
(g6
(I0
tS'b'
tRp3683
(I1
(tg9
I00
S'\xf9*\xd5@'
tbs(g185
g26
tp3684
g5
(g6
(I0
tS'b'
tRp3685
(I1
(tg9
I00
S"i}'@"
tbs(g234
g105
tp3686
g5
(g6
(I0
tS'b'
tRp3687
(I1
(tg9
I00
S'\xb7\x98\xc6\xc0'
tbs(g132
g100
tp3688
g5
(g6
(I0
tS'b'
tRp3689
(I1
(tg9
I00
S'\xa1\x1d\x1e\xc0'
tbs(g37
g55
tp3690
g5
(g6
(I0
tS'b'
tRp3691
(I1
(tg9
I00
S'\x9a\x17\xac\xc1'
tbs(g29
g177
tp3692
g5
(g6
(I0
tS'b'
tRp3693
(I1
(tg9
I00
S'o\xd1b@'
tbs(g143
g307
tp3694
g5
(g6
(I0
tS'b'
tRp3695
(I1
(tg9
I00
S'\xaed\x8a@'
tbs(g74
g78
tp3696
g5
(g6
(I0
tS'b'
tRp3697
(I1
(tg9
I00
S'~Q\x00\xc1'
tbs(g152
g19
tp3698
g5
(g6
(I0
tS'b'
tRp3699
(I1
(tg9
I00
S'\x83^5@'
tbs(g296
g19
tp3700
g5
(g6
(I0
tS'b'
tRp3701
(I1
(tg9
I00
S'\x83uK\xc0'
tbs(g234
g75
tp3702
g5
(g6
(I0
tS'b'
tRp3703
(I1
(tg9
I00
S'\xcb\xf8\xa5\xc1'
tbs(g126
g38
tp3704
g5
(g6
(I0
tS'b'
tRp3705
(I1
(tg9
I00
S'\xe1q\xc3?'
tbs(g51
g174
tp3706
g5
(g6
(I0
tS'b'
tRp3707
(I1
(tg9
I00
S'\xb7+hA'
tbs(g15
g45
tp3708
g5
(g6
(I0
tS'b'
tRp3709
(I1
(tg9
I00
S'\x9d\x84\xf1@'
tbs(g67
g143
tp3710
g5
(g6
(I0
tS'b'
tRp3711
(I1
(tg9
I00
S'\x17tJ@'
tbs(g180
g143
tp3712
g5
(g6
(I0
tS'b'
tRp3713
(I1
(tg9
I00
S'\xd8HC\xc0'
tbs(g38
g82
tp3714
g5
(g6
(I0
tS'b'
tRp3715
(I1
(tg9
I00
S'%?k@'
tbs(g18
g166
tp3716
g5
(g6
(I0
tS'b'
tRp3717
(I1
(tg9
I00
S'\x05[\x08@'
tbs(g132
g174
tp3718
g5
(g6
(I0
tS'b'
tRp3719
(I1
(tg9
I00
S'-\x8cBA'
tbs(g56
g26
tp3720
g5
(g6
(I0
tS'b'
tRp3721
(I1
(tg9
I00
S'\x159\xe1\xc0'
tbs(g177
g116
tp3722
g5
(g6
(I0
tS'b'
tRp3723
(I1
(tg9
I00
S'\xc1p>A'
tbs(g94
g332
tp3724
g5
(g6
(I0
tS'b'
tRp3725
(I1
(tg9
I00
S'\xdc\x1ea@'
tbs(g234
g10
tp3726
g5
(g6
(I0
tS'b'
tRp3727
(I1
(tg9
I00
S']\x9c\xc9@'
tbs(g234
g177
tp3728
g5
(g6
(I0
tS'b'
tRp3729
(I1
(tg9
I00
S'[\xd9"\xc1'
tbs(g180
g359
tp3730
g5
(g6
(I0
tS'b'
tRp3731
(I1
(tg9
I00
S'-\xb8L\xc1'
tbs(g152
g163
tp3732
g5
(g6
(I0
tS'b'
tRp3733
(I1
(tg9
I00
S'0\xfa\xa8\xc0'
tbs(g44
g296
tp3734
g5
(g6
(I0
tS'b'
tRp3735
(I1
(tg9
I00
S'\x17\x0e\x96\xbf'
tbs(g2
g95
tp3736
g5
(g6
(I0
tS'b'
tRp3737
(I1
(tg9
I00
S'\xc5\xe0\xab\xc0'
tbs(g177
g52
tp3738
g5
(g6
(I0
tS'b'
tRp3739
(I1
(tg9
I00
S'O\xe3\x12A'
tbs(g234
g82
tp3740
g5
(g6
(I0
tS'b'
tRp3741
(I1
(tg9
I00
S'O\xed\x17@'
tbs(g140
g219
tp3742
g5
(g6
(I0
tS'b'
tRp3743
(I1
(tg9
I00
S'0\xd4|A'
tbs(g197
g33
tp3744
g5
(g6
(I0
tS'b'
tRp3745
(I1
(tg9
I00
S'\xffe\xff?'
tbs(g132
g11
tp3746
g5
(g6
(I0
tS'b'
tRp3747
(I1
(tg9
I00
S'\x82\x80J\xc1'
tbs(g22
g37
tp3748
g5
(g6
(I0
tS'b'
tRp3749
(I1
(tg9
I00
S'\xdd|NA'
tbs(g261
g67
tp3750
g5
(g6
(I0
tS'b'
tRp3751
(I1
(tg9
I00
S'\xfa\xdd)\xc1'
tbs(g55
g91
tp3752
g5
(g6
(I0
tS'b'
tRp3753
(I1
(tg9
I00
S'\x85\x99\xbe@'
tbs(g37
g26
tp3754
g5
(g6
(I0
tS'b'
tRp3755
(I1
(tg9
I00
S'\x1cJ\x88\xc1'
tbs(g234
g52
tp3756
g5
(g6
(I0
tS'b'
tRp3757
(I1
(tg9
I00
S'|\x92\x8c\xbf'
tbs(g2
g25
tp3758
g5
(g6
(I0
tS'b'
tRp3759
(I1
(tg9
I00
S',\xac\x7f\xc1'
tbs(g44
g55
tp3760
g5
(g6
(I0
tS'b'
tRp3761
(I1
(tg9
I00
S'\xfbqV\xc1'
tbs(g180
g70
tp3762
g5
(g6
(I0
tS'b'
tRp3763
(I1
(tg9
I00
S'I\xcbd@'
tbs(g94
g45
tp3764
g5
(g6
(I0
tS'b'
tRp3765
(I1
(tg9
I00
S'g{K@'
tbs(g116
g359
tp3766
g5
(g6
(I0
tS'b'
tRp3767
(I1
(tg9
I00
S'\xe9\x04\x96\xc1'
tbs(g234
g64
tp3768
g5
(g6
(I0
tS'b'
tRp3769
(I1
(tg9
I00
S'\x1a7\x8b\xc0'
tbs(g55
g185
tp3770
g5
(g6
(I0
tS'b'
tRp3771
(I1
(tg9
I00
S'w\xe8\x96\xc0'
tbs(g140
g3
tp3772
g5
(g6
(I0
tS'b'
tRp3773
(I1
(tg9
I00
S'p(\x90@'
tbs(g163
g26
tp3774
g5
(g6
(I0
tS'b'
tRp3775
(I1
(tg9
I00
S'\xa9\xe4j\xc0'
tbs(g140
g37
tp3776
g5
(g6
(I0
tS'b'
tRp3777
(I1
(tg9
I00
S'\xb0\x1c\x80A'
tbs(g126
g44
tp3778
g5
(g6
(I0
tS'b'
tRp3779
(I1
(tg9
I00
S'\xebK\n?'
tbs(g110
g34
tp3780
g5
(g6
(I0
tS'b'
tRp3781
(I1
(tg9
I00
S'\xa7G,\xc1'
tbs(g37
g174
tp3782
g5
(g6
(I0
tS'b'
tRp3783
(I1
(tg9
I00
S'\xc3\xe8\x18\xc1'
tbs(g70
g19
tp3784
g5
(g6
(I0
tS'b'
tRp3785
(I1
(tg9
I00
S'\xab\x8e\xef\xbf'
tbs(g29
g56
tp3786
g5
(g6
(I0
tS'b'
tRp3787
(I1
(tg9
I00
S'\xecu\xeb?'
tbs(g74
g30
tp3788
g5
(g6
(I0
tS'b'
tRp3789
(I1
(tg9
I00
S'\x88\xe6\x89@'
tbs(g18
g177
tp3790
g5
(g6
(I0
tS'b'
tRp3791
(I1
(tg9
I00
S'\x11\nr@'
tbs(g110
g143
tp3792
g5
(g6
(I0
tS'b'
tRp3793
(I1
(tg9
I00
S'U\x85:\xc0'
tbs(g194
g143
tp3794
g5
(g6
(I0
tS'b'
tRp3795
(I1
(tg9
I00
S'\x16O\x03\xc1'
tbs(g296
g143
tp3796
g5
(g6
(I0
tS'b'
tRp3797
(I1
(tg9
I00
S'\xb52\x06\xc1'
tbs(g67
g78
tp3798
g5
(g6
(I0
tS'b'
tRp3799
(I1
(tg9
I00
S'\xaa\xe4$@'
tbs(g51
g194
tp3800
g5
(g6
(I0
tS'b'
tRp3801
(I1
(tg9
I00
S'\xa55\x1fA'
tbs(g94
g10
tp3802
g5
(g6
(I0
tS'b'
tRp3803
(I1
(tg9
I00
S'\xd4X\xe3@'
tbs(g307
g10
tp3804
g5
(g6
(I0
tS'b'
tRp3805
(I1
(tg9
I00
S'\xad\x05WA'
tbs(g67
g19
tp3806
g5
(g6
(I0
tS'b'
tRp3807
(I1
(tg9
I00
S'\xb1N.A'
tbs(g94
g71
tp3808
g5
(g6
(I0
tS'b'
tRp3809
(I1
(tg9
I00
S'\xb1\xf1\xf8\xbf'
tbs(g75
g52
tp3810
g5
(g6
(I0
tS'b'
tRp3811
(I1
(tg9
I00
S'J\xceaA'
tbs(g55
g34
tp3812
g5
(g6
(I0
tS'b'
tRp3813
(I1
(tg9
I00
S'\xf0\xab\xbf\xc0'
tbs(g37
g41
tp3814
g5
(g6
(I0
tS'b'
tRp3815
(I1
(tg9
I00
S'\x0ea\xaf\xc0'
tbs(g2
g41
tp3816
g5
(g6
(I0
tS'b'
tRp3817
(I1
(tg9
I00
S'\xa7\xd7\xf4?'
tbs(g34
g332
tp3818
g5
(g6
(I0
tS'b'
tRp3819
(I1
(tg9
I00
S'\xcf\xf1BA'
tbs(g94
g219
tp3820
g5
(g6
(I0
tS'b'
tRp3821
(I1
(tg9
I00
S'\x13&\xa6@'
tbs(g261
g11
tp3822
g5
(g6
(I0
tS'b'
tRp3823
(I1
(tg9
I00
S'\x10\x07E\xc1'
tbs(g3
g219
tp3824
g5
(g6
(I0
tS'b'
tRp3825
(I1
(tg9
I00
S'\x03\xae.A'
tbs(g75
g26
tp3826
g5
(g6
(I0
tS'b'
tRp3827
(I1
(tg9
I00
S")\xa6'@"
tbs(g132
g26
tp3828
g5
(g6
(I0
tS'b'
tRp3829
(I1
(tg9
I00
S'\xe1k\x02\xc1'
tbs(g105
g111
tp3830
g5
(g6
(I0
tS'b'
tRp3831
(I1
(tg9
I00
S'#k\xed\xbe'
tbs(g30
g56
tp3832
g5
(g6
(I0
tS'b'
tRp3833
(I1
(tg9
I00
S'\nGp\xc1'
tbs(g33
g52
tp3834
g5
(g6
(I0
tS'b'
tRp3835
(I1
(tg9
I00
S'\x0bU\x99\xbf'
tbs(g14
g163
tp3836
g5
(g6
(I0
tS'b'
tRp3837
(I1
(tg9
I00
S'\x90S^?'
tbs(g44
g41
tp3838
g5
(g6
(I0
tS'b'
tRp3839
(I1
(tg9
I00
S'5\xecU@'
tbs(g22
g174
tp3840
g5
(g6
(I0
tS'b'
tRp3841
(I1
(tg9
I00
S'RX-A'
tbs(g152
g34
tp3842
g5
(g6
(I0
tS'b'
tRp3843
(I1
(tg9
I00
S'\x04\x8dD\xc1'
tbs(g51
g219
tp3844
g5
(g6
(I0
tS'b'
tRp3845
(I1
(tg9
I00
S'o\x82xA'
tbs(g3
g71
tp3846
g5
(g6
(I0
tS'b'
tRp3847
(I1
(tg9
I00
S'\x8b\x1de@'
tbs(g194
g296
tp3848
g5
(g6
(I0
tS'b'
tRp3849
(I1
(tg9
I00
S'G\x10\xaa?'
tbs(g14
g55
tp3850
g5
(g6
(I0
tS'b'
tRp3851
(I1
(tg9
I00
S'\xaa\xba\x99\xc0'
tbs(g81
g129
tp3852
g5
(g6
(I0
tS'b'
tRp3853
(I1
(tg9
I00
S'\x0e<\x1f\xc1'
tbs(g78
g11
tp3854
g5
(g6
(I0
tS'b'
tRp3855
(I1
(tg9
I00
S'\xd9\x83\xa6\xc0'
tbs(g140
g29
tp3856
g5
(g6
(I0
tS'b'
tRp3857
(I1
(tg9
I00
S'QPV\xc0'
tbs(g197
g19
tp3858
g5
(g6
(I0
tS'b'
tRp3859
(I1
(tg9
I00
S'M\x85\xf4?'
tbs(g70
g111
tp3860
g5
(g6
(I0
tS'b'
tRp3861
(I1
(tg9
I00
S'u\x81T\xc0'
tbs(g180
g26
tp3862
g5
(g6
(I0
tS'b'
tRp3863
(I1
(tg9
I00
S'\xea\x9c\xf0\xc0'
tbs(g261
g143
tp3864
g5
(g6
(I0
tS'b'
tRp3865
(I1
(tg9
I00
S'\xf3T\xa7\xc0'
tbs(g25
g180
tp3866
g5
(g6
(I0
tS'b'
tRp3867
(I1
(tg9
I00
S'\xa8\xcb\xb3@'
tbs(g110
g70
tp3868
g5
(g6
(I0
tS'b'
tRp3869
(I1
(tg9
I00
S'\xb6\xf8\x97@'
tbs(g132
g219
tp3870
g5
(g6
(I0
tS'b'
tRp3871
(I1
(tg9
I00
S'\xcbtCA'
tbs(g135
g10
tp3872
g5
(g6
(I0
tS'b'
tRp3873
(I1
(tg9
I00
S'\x91\xecaA'
tbs(g29
g111
tp3874
g5
(g6
(I0
tS'b'
tRp3875
(I1
(tg9
I00
S'@\xc8\xc6@'
tbs(g2
g45
tp3876
g5
(g6
(I0
tS'b'
tRp3877
(I1
(tg9
I00
S'D\xd5e\xc0'
tbs(g94
g26
tp3878
g5
(g6
(I0
tS'b'
tRp3879
(I1
(tg9
I00
S'Cm0\xc1'
tbs(g30
g38
tp3880
g5
(g6
(I0
tS'b'
tRp3881
(I1
(tg9
I00
S'\xd8\xd8\x19\xc1'
tbs(g234
g38
tp3882
g5
(g6
(I0
tS'b'
tRp3883
(I1
(tg9
I00
S'w$q\xc0'
tbs(g14
g219
tp3884
g5
(g6
(I0
tS'b'
tRp3885
(I1
(tg9
I00
S'\xa5;\x80A'
tbs(g105
g296
tp3886
g5
(g6
(I0
tS'b'
tRp3887
(I1
(tg9
I00
S'[!\x8f@'
tbs(g67
g25
tp3888
g5
(g6
(I0
tS'b'
tRp3889
(I1
(tg9
I00
S'#\x9bK\xc0'
tbs(g75
g15
tp3890
g5
(g6
(I0
tS'b'
tRp3891
(I1
(tg9
I00
S'\x08\xc5!A'
tbs(g116
g174
tp3892
g5
(g6
(I0
tS'b'
tRp3893
(I1
(tg9
I00
S'\xfd!\x80?'
tbs(g307
g11
tp3894
g5
(g6
(I0
tS'b'
tRp3895
(I1
(tg9
I00
S'T9\x15\xc1'
tbs(g152
g81
tp3896
g5
(g6
(I0
tS'b'
tRp3897
(I1
(tg9
I00
S'\x1b\x12\x0bA'
tbs(g177
g38
tp3898
g5
(g6
(I0
tS'b'
tRp3899
(I1
(tg9
I00
S'\xf6\x07\xb5@'
tbs(g18
g34
tp3900
g5
(g6
(I0
tS'b'
tRp3901
(I1
(tg9
I00
S'\xbd\x11\x11\xc1'
tbs(g55
g123
tp3902
g5
(g6
(I0
tS'b'
tRp3903
(I1
(tg9
I00
S'\xaen<A'
tbs(g111
g82
tp3904
g5
(g6
(I0
tS'b'
tRp3905
(I1
(tg9
I00
S'\x9c\x01\x01A'
tbs(g100
g34
tp3906
g5
(g6
(I0
tS'b'
tRp3907
(I1
(tg9
I00
S'\x90G\x18\xc1'
tbs(g19
g307
tp3908
g5
(g6
(I0
tS'b'
tRp3909
(I1
(tg9
I00
S'~;}\xc0'
tbs(g111
g174
tp3910
g5
(g6
(I0
tS'b'
tRp3911
(I1
(tg9
I00
S'\x9b\x91-A'
tbs(g126
g34
tp3912
g5
(g6
(I0
tS'b'
tRp3913
(I1
(tg9
I00
S'K\x90\x8c\xc1'
tbs(g30
g111
tp3914
g5
(g6
(I0
tS'b'
tRp3915
(I1
(tg9
I00
S'\x1b\x8c3\xc1'
tbs(g33
g71
tp3916
g5
(g6
(I0
tS'b'
tRp3917
(I1
(tg9
I00
S'%\xca\x08\xbe'
tbs(g110
g44
tp3918
g5
(g6
(I0
tS'b'
tRp3919
(I1
(tg9
I00
S'\xaa\xc9\xbf@'
tbs(g25
g37
tp3920
g5
(g6
(I0
tS'b'
tRp3921
(I1
(tg9
I00
S'\x052\x82A'
tbs(g116
g173
tp3922
g5
(g6
(I0
tS'b'
tRp3923
(I1
(tg9
I00
S'\xc3-L\xc1'
tbs(g51
g152
tp3924
g5
(g6
(I0
tS'b'
tRp3925
(I1
(tg9
I00
S'D\xdc\tA'
tbs(g194
g174
tp3926
g5
(g6
(I0
tS'b'
tRp3927
(I1
(tg9
I00
S'\x81\xadp@'
tbs(g18
g174
tp3928
g5
(g6
(I0
tS'b'
tRp3929
(I1
(tg9
I00
S'{gdA'
tbs(g30
g26
tp3930
g5
(g6
(I0
tS'b'
tRp3931
(I1
(tg9
I00
S'\xd08c\xc1'
tbs(g2
g307
tp3932
g5
(g6
(I0
tS'b'
tRp3933
(I1
(tg9
I00
S'8\x8bN\xc1'
tbs(g173
g123
tp3934
g5
(g6
(I0
tS'b'
tRp3935
(I1
(tg9
I00
S'x\xe3\x95?'
tbs(g81
g166
tp3936
g5
(g6
(I0
tS'b'
tRp3937
(I1
(tg9
I00
S'\xba\xcc\xf3\xc0'
tbs(g140
g359
tp3938
g5
(g6
(I0
tS'b'
tRp3939
(I1
(tg9
I00
S'\xd4\x1a(\xc1'
tbs(g234
g214
tp3940
g5
(g6
(I0
tS'b'
tRp3941
(I1
(tg9
I00
S'\x04\\\xdc\xc0'
tbs(g132
g296
tp3942
g5
(g6
(I0
tS'b'
tRp3943
(I1
(tg9
I00
S'`\xcf\xc4@'
tbs(g94
g152
tp3944
g5
(g6
(I0
tS'b'
tRp3945
(I1
(tg9
I00
S'v\xf7\x12\xc0'
tbs(g19
g33
tp3946
g5
(g6
(I0
tS'b'
tRp3947
(I1
(tg9
I00
S'I\xd8\xfe>'
tbs(g152
g71
tp3948
g5
(g6
(I0
tS'b'
tRp3949
(I1
(tg9
I00
S'\xbb\xe8\xd5?'
tbs(g48
g55
tp3950
g5
(g6
(I0
tS'b'
tRp3951
(I1
(tg9
I00
S'o\xbfs\xc1'
tbs(g152
g185
tp3952
g5
(g6
(I0
tS'b'
tRp3953
(I1
(tg9
I00
S'I\x98\x1f\xc1'
tbs(g105
g166
tp3954
g5
(g6
(I0
tS'b'
tRp3955
(I1
(tg9
I00
S'U\xad4\xc0'
tbs(g25
g185
tp3956
g5
(g6
(I0
tS'b'
tRp3957
(I1
(tg9
I00
S'0\x1dG\xc0'
tbs(g52
g26
tp3958
g5
(g6
(I0
tS'b'
tRp3959
(I1
(tg9
I00
S'\x10\xffI\xc1'
tbs(g116
g19
tp3960
g5
(g6
(I0
tS'b'
tRp3961
(I1
(tg9
I00
S'\xa2\xeb\xa4\xc0'
tbs(g129
g163
tp3962
g5
(g6
(I0
tS'b'
tRp3963
(I1
(tg9
I00
S'\xe7<W\xc0'
tbs(g177
g129
tp3964
g5
(g6
(I0
tS'b'
tRp3965
(I1
(tg9
I00
S'\xaaJJ\xc0'
tbs(g14
g10
tp3966
g5
(g6
(I0
tS'b'
tRp3967
(I1
(tg9
I00
S'\xfcB\x8aA'
tbs(g48
g33
tp3968
g5
(g6
(I0
tS'b'
tRp3969
(I1
(tg9
I00
S'T\x0eI\xbf'
tbs(g64
g34
tp3970
g5
(g6
(I0
tS'b'
tRp3971
(I1
(tg9
I00
S'\xd9s=\xc1'
tbs(g29
g100
tp3972
g5
(g6
(I0
tS'b'
tRp3973
(I1
(tg9
I00
S'8z\x87@'
tbs(g129
g78
tp3974
g5
(g6
(I0
tS'b'
tRp3975
(I1
(tg9
I00
S'\xc5\x1e$\xc0'
tbs(g197
g45
tp3976
g5
(g6
(I0
tS'b'
tRp3977
(I1
(tg9
I00
S'\x04~\x95@'
tbs(g52
g174
tp3978
g5
(g6
(I0
tS'b'
tRp3979
(I1
(tg9
I00
S'\xf9O\xf2@'
tbs(g177
g14
tp3980
g5
(g6
(I0
tS'b'
tRp3981
(I1
(tg9
I00
S'\x1aZ\r\xc0'
tbs(g67
g33
tp3982
g5
(g6
(I0
tS'b'
tRp3983
(I1
(tg9
I00
S'\x1e\xdbZA'
tbs(g30
g173
tp3984
g5
(g6
(I0
tS'b'
tRp3985
(I1
(tg9
I00
S'X\x9bb\xc1'
tbs(g74
g296
tp3986
g5
(g6
(I0
tS'b'
tRp3987
(I1
(tg9
I00
S'\xaf(d\xc0'
tbs(g185
g10
tp3988
g5
(g6
(I0
tS'b'
tRp3989
(I1
(tg9
I00
S'y\x0fwA'
tbs(g3
g91
tp3990
g5
(g6
(I0
tS'b'
tRp3991
(I1
(tg9
I00
S'F\xeb\n\xc1'
tbs(g94
g123
tp3992
g5
(g6
(I0
tS'b'
tRp3993
(I1
(tg9
I00
S'\x0e\x1d\x04\xbd'
tbs(g261
g48
tp3994
g5
(g6
(I0
tS'b'
tRp3995
(I1
(tg9
I00
S'6\xea\x8a@'
tbs(g359
g56
tp3996
g5
(g6
(I0
tS'b'
tRp3997
(I1
(tg9
I00
S'\xa7J7A'
tbs(g180
g173
tp3998
g5
(g6
(I0
tS'b'
tRp3999
(I1
(tg9
I00
S'1\xf9\xe8\xbf'
tbs(g166
g143
tp4000
g5
(g6
(I0
tS'b'
tRp4001
(I1
(tg9
I00
S'\xac\xddO?'
tbs(g3
g64
tp4002
g5
(g6
(I0
tS'b'
tRp4003
(I1
(tg9
I00
S'\x83q\xe1\xbf'
tbs(g135
g26
tp4004
g5
(g6
(I0
tS'b'
tRp4005
(I1
(tg9
I00
S'F\t\xc9\xc0'
tbs(g173
g332
tp4006
g5
(g6
(I0
tS'b'
tRp4007
(I1
(tg9
I00
S'n\xe3i@'
tbs(g194
g26
tp4008
g5
(g6
(I0
tS'b'
tRp4009
(I1
(tg9
I00
S'F\x95>\xc1'
tbs(g61
g166
tp4010
g5
(g6
(I0
tS'b'
tRp4011
(I1
(tg9
I00
S'\x0c\xa7\x1c\xc1'
tbs(g126
g173
tp4012
g5
(g6
(I0
tS'b'
tRp4013
(I1
(tg9
I00
S't\x9f\x8b\xc0'
tbs(g100
g173
tp4014
g5
(g6
(I0
tS'b'
tRp4015
(I1
(tg9
I00
S'\x07\xf6L@'
tbs(g194
g55
tp4016
g5
(g6
(I0
tS'b'
tRp4017
(I1
(tg9
I00
S'\xe1\xf6x\xc1'
tbs(g30
g185
tp4018
g5
(g6
(I0
tS'b'
tRp4019
(I1
(tg9
I00
S'd\xe9\\\xc1'
tbs(g110
g22
tp4020
g5
(g6
(I0
tS'b'
tRp4021
(I1
(tg9
I00
S'\xcd\x04\x02\xc0'
tbs(g126
g30
tp4022
g5
(g6
(I0
tS'b'
tRp4023
(I1
(tg9
I00
S'p\xee\x18A'
tbs(g135
g19
tp4024
g5
(g6
(I0
tS'b'
tRp4025
(I1
(tg9
I00
S'(\x93\xcb@'
tbs(g78
g214
tp4026
g5
(g6
(I0
tS'b'
tRp4027
(I1
(tg9
I00
S'\xdexi='
tbs(g22
g163
tp4028
g5
(g6
(I0
tS'b'
tRp4029
(I1
(tg9
I00
S'A5\xbb?'
tbs(g3
g111
tp4030
g5
(g6
(I0
tS'b'
tRp4031
(I1
(tg9
I00
S'\x01\xc4[\xc0'
tbs(g55
g78
tp4032
g5
(g6
(I0
tS'b'
tRp4033
(I1
(tg9
I00
S'\xde\xd0i@'
tbs(g25
g100
tp4034
g5
(g6
(I0
tS'b'
tRp4035
(I1
(tg9
I00
S'7\xc9e@'
tbs(g197
g307
tp4036
g5
(g6
(I0
tS'b'
tRp4037
(I1
(tg9
I00
S'\x8d\xc6O?'
tbs(g135
g11
tp4038
g5
(g6
(I0
tS'b'
tRp4039
(I1
(tg9
I00
S'\xca\x01\xee\xc0'
tbs(g197
g78
tp4040
g5
(g6
(I0
tS'b'
tRp4041
(I1
(tg9
I00
S'\xb2\xb6\x8c\xc0'
tbs(g105
g56
tp4042
g5
(g6
(I0
tS'b'
tRp4043
(I1
(tg9
I00
S'\xeb\x97\xfd\xbf'
tbs(g67
g126
tp4044
g5
(g6
(I0
tS'b'
tRp4045
(I1
(tg9
I00
S'\x15\x15UA'
tbs(g261
g91
tp4046
g5
(g6
(I0
tS'b'
tRp4047
(I1
(tg9
I00
S'\x8c9\xb0\xc0'
tbs(g30
g55
tp4048
g5
(g6
(I0
tS'b'
tRp4049
(I1
(tg9
I00
S'}<\x8b\xc1'
tbs(g25
g174
tp4050
g5
(g6
(I0
tS'b'
tRp4051
(I1
(tg9
I00
S'\xbb2YA'
tbs(g2
g30
tp4052
g5
(g6
(I0
tS'b'
tRp4053
(I1
(tg9
I00
S'K\x8a+@'
tbs(g75
g359
tp4054
g5
(g6
(I0
tS'b'
tRp4055
(I1
(tg9
I00
S'\xab\xd2\x9e\xc0'
tbs(g22
g123
tp4056
g5
(g6
(I0
tS'b'
tRp4057
(I1
(tg9
I00
S'"\xc5\xaf@'
tbs(g140
g38
tp4058
g5
(g6
(I0
tS'b'
tRp4059
(I1
(tg9
I00
S'"\xd7\xe1@'
tbs(g67
g307
tp4060
g5
(g6
(I0
tS'b'
tRp4061
(I1
(tg9
I00
S'\x12\x97\xac@'
tbs(g74
g52
tp4062
g5
(g6
(I0
tS'b'
tRp4063
(I1
(tg9
I00
S'\x16\xb2\xe1\xbf'
tbs(g18
g95
tp4064
g5
(g6
(I0
tS'b'
tRp4065
(I1
(tg9
I00
S'?VTA'
tbs(g234
g71
tp4066
g5
(g6
(I0
tS'b'
tRp4067
(I1
(tg9
I00
S'\xa9\xab\xcb?'
tbs(g61
g129
tp4068
g5
(g6
(I0
tS'b'
tRp4069
(I1
(tg9
I00
S'}\x8c\\\xc1'
tbs(g29
g166
tp4070
g5
(g6
(I0
tS'b'
tRp4071
(I1
(tg9
I00
S'W^\xa1@'
tbs(g194
g214
tp4072
g5
(g6
(I0
tS'b'
tRp4073
(I1
(tg9
I00
S'\x88i\xc9\xc0'
tbs(g94
g55
tp4074
g5
(g6
(I0
tS'b'
tRp4075
(I1
(tg9
I00
S'x\x13n\xc1'
tbs(g214
g123
tp4076
g5
(g6
(I0
tS'b'
tRp4077
(I1
(tg9
I00
S'\xd4\x8d\x93@'
tbs(g214
g45
tp4078
g5
(g6
(I0
tS'b'
tRp4079
(I1
(tg9
I00
S'\x95\x01\xf3@'
tbs(g48
g3
tp4080
g5
(g6
(I0
tS'b'
tRp4081
(I1
(tg9
I00
S'Q\xd7\x7f\xc0'
tbs(g116
g45
tp4082
g5
(g6
(I0
tS'b'
tRp4083
(I1
(tg9
I00
S'\xf0\xca\xaf\xc0'
tbs(g261
g55
tp4084
g5
(g6
(I0
tS'b'
tRp4085
(I1
(tg9
I00
S'E\x12:\xc1'
tbs(g100
g82
tp4086
g5
(g6
(I0
tS'b'
tRp4087
(I1
(tg9
I00
S'\xc3s|A'
tbs(g15
g19
tp4088
g5
(g6
(I0
tS'b'
tRp4089
(I1
(tg9
I00
S'6\x06r@'
tbs(g94
g110
tp4090
g5
(g6
(I0
tS'b'
tRp4091
(I1
(tg9
I00
S'\xe6\xa3\x99\xc0'
tbs(g177
g70
tp4092
g5
(g6
(I0
tS'b'
tRp4093
(I1
(tg9
I00
S'\xfa\xeb\x95@'
tbs(g105
g41
tp4094
g5
(g6
(I0
tS'b'
tRp4095
(I1
(tg9
I00
S'-j\x08A'
tbs(g166
g173
tp4096
g5
(g6
(I0
tS'b'
tRp4097
(I1
(tg9
I00
S'G\xa6z@'
tbs(g61
g75
tp4098
g5
(g6
(I0
tS'b'
tRp4099
(I1
(tg9
I00
S'\xbeH\x97\xc1'
tbs(g64
g19
tp4100
g5
(g6
(I0
tS'b'
tRp4101
(I1
(tg9
I00
S'\x987\x0e\xc0'
tbs(g140
g18
tp4102
g5
(g6
(I0
tS'b'
tRp4103
(I1
(tg9
I00
S'\x9ct\x9d@'
tbs(g132
g75
tp4104
g5
(g6
(I0
tS'b'
tRp4105
(I1
(tg9
I00
S'\xdeZ+\xc1'
tbs(g37
g95
tp4106
g5
(g6
(I0
tS'b'
tRp4107
(I1
(tg9
I00
S't~ \xc1'
tbs(g126
g78
tp4108
g5
(g6
(I0
tS'b'
tRp4109
(I1
(tg9
I00
S'%\x94\x0c\xc1'
tbs(g214
g111
tp4110
g5
(g6
(I0
tS'b'
tRp4111
(I1
(tg9
I00
S'5q\x13@'
tbs(g51
g3
tp4112
g5
(g6
(I0
tS'b'
tRp4113
(I1
(tg9
I00
S'.\xfc\xf1@'
tbs(g51
g110
tp4114
g5
(g6
(I0
tS'b'
tRp4115
(I1
(tg9
I00
S'\x124\xc8@'
tbs(g48
g173
tp4116
g5
(g6
(I0
tS'b'
tRp4117
(I1
(tg9
I00
S'4\x1d0\xc0'
tbs(g135
g74
tp4118
g5
(g6
(I0
tS'b'
tRp4119
(I1
(tg9
I00
S'\x13\xdb\xe4@'
tbs(g152
g123
tp4120
g5
(g6
(I0
tS'b'
tRp4121
(I1
(tg9
I00
S'%u\xda?'
tbs(g135
g22
tp4122
g5
(g6
(I0
tS'b'
tRp4123
(I1
(tg9
I00
S'\x1fI\x08@'
tbs(g29
g359
tp4124
g5
(g6
(I0
tS'b'
tRp4125
(I1
(tg9
I00
S'Bo#\xc1'
tbs(g94
g3
tp4126
g5
(g6
(I0
tS'b'
tRp4127
(I1
(tg9
I00
S'\xce\xa9\xa2\xc0'
tbs(g26
g71
tp4128
g5
(g6
(I0
tS'b'
tRp4129
(I1
(tg9
I00
S'U\xa95A'
tbs(g55
g64
tp4130
g5
(g6
(I0
tS'b'
tRp4131
(I1
(tg9
I00
S'\xaf\x04\x18A'
tbs(g67
g48
tp4132
g5
(g6
(I0
tS'b'
tRp4133
(I1
(tg9
I00
S']\x10^A'
tbs(g110
g26
tp4134
g5
(g6
(I0
tS'b'
tRp4135
(I1
(tg9
I00
S'\x8a\x9e\xf2\xc0'
tbs(g48
g185
tp4136
g5
(g6
(I0
tS'b'
tRp4137
(I1
(tg9
I00
S')\x84G\xc1'
tbs(g48
g296
tp4138
g5
(g6
(I0
tS'b'
tRp4139
(I1
(tg9
I00
S'\x1e\xc8\x1a\xc0'
tbs(g10
g82
tp4140
g5
(g6
(I0
tS'b'
tRp4141
(I1
(tg9
I00
S'\xc5\xb1\xaf\xc0'
tbs(g132
g123
tp4142
g5
(g6
(I0
tS'b'
tRp4143
(I1
(tg9
I00
S'_\xac\xfd?'
tbs(g25
g19
tp4144
g5
(g6
(I0
tS'b'
tRp4145
(I1
(tg9
I00
S'\x80\xdf\x00A'
tbs(g132
g41
tp4146
g5
(g6
(I0
tS'b'
tRp4147
(I1
(tg9
I00
S'\x9e\x91\xe6@'
tbs(g2
g55
tp4148
g5
(g6
(I0
tS'b'
tRp4149
(I1
(tg9
I00
S"'\xbf\x8e\xc1"
tbs(g29
g70
tp4150
g5
(g6
(I0
tS'b'
tRp4151
(I1
(tg9
I00
S'\xff\xa9!A'
tbs(g105
g116
tp4152
g5
(g6
(I0
tS'b'
tRp4153
(I1
(tg9
I00
S'U\x8c$A'
tbs(g197
g26
tp4154
g5
(g6
(I0
tS'b'
tRp4155
(I1
(tg9
I00
S'}\xd0\x1c\xc1'
tbs(g44
g56
tp4156
g5
(g6
(I0
tS'b'
tRp4157
(I1
(tg9
I00
S'\xa3\xf2\t\xc1'
tbs(g135
g75
tp4158
g5
(g6
(I0
tS'b'
tRp4159
(I1
(tg9
I00
S'L{\xf4\xc0'
tbs(g111
g11
tp4160
g5
(g6
(I0
tS'b'
tRp4161
(I1
(tg9
I00
S'Oe4\xc1'
tbs(g81
g33
tp4162
g5
(g6
(I0
tS'b'
tRp4163
(I1
(tg9
I00
S'\xbd\x93\x15@'
tbs(g61
g71
tp4164
g5
(g6
(I0
tS'b'
tRp4165
(I1
(tg9
I00
S'H:\xa9\xbf'
tbs(g126
g194
tp4166
g5
(g6
(I0
tS'b'
tRp4167
(I1
(tg9
I00
S'\xa5\xb0\xac?'
tbs(g81
g111
tp4168
g5
(g6
(I0
tS'b'
tRp4169
(I1
(tg9
I00
S'\x90\xd7\xae\xc0'
tbs(g166
g82
tp4170
g5
(g6
(I0
tS'b'
tRp4171
(I1
(tg9
I00
S'\x06\xefDA'
tbs(g91
g10
tp4172
g5
(g6
(I0
tS'b'
tRp4173
(I1
(tg9
I00
S'\x1fMyA'
tbs(g143
g38
tp4174
g5
(g6
(I0
tS'b'
tRp4175
(I1
(tg9
I00
S'\r\x9b\xe3@'
tbs(g51
g29
tp4176
g5
(g6
(I0
tS'b'
tRp4177
(I1
(tg9
I00
S'\xecR\x9a@'
tbs(g185
g123
tp4178
g5
(g6
(I0
tS'b'
tRp4179
(I1
(tg9
I00
S'q\xea\x05A'
tbs(g29
g34
tp4180
g5
(g6
(I0
tS'b'
tRp4181
(I1
(tg9
I00
S'\xcf5\xa5\xc0'
tbs(g10
g123
tp4182
g5
(g6
(I0
tS'b'
tRp4183
(I1
(tg9
I00
S'\x11]\xeb\xc0'
tbs(g19
g332
tp4184
g5
(g6
(I0
tS'b'
tRp4185
(I1
(tg9
I00
S'w8+\xbf'
tbs(g51
g22
tp4186
g5
(g6
(I0
tS'b'
tRp4187
(I1
(tg9
I00
S'N\xaf\xaa@'
tbs(g234
g197
tp4188
g5
(g6
(I0
tS'b'
tRp4189
(I1
(tg9
I00
S'P\xbe\x8e\xc0'
tbs(g51
g100
tp4190
g5
(g6
(I0
tS'b'
tRp4191
(I1
(tg9
I00
S'\x16\xc9\xd2@'
tbs(g163
g100
tp4192
g5
(g6
(I0
tS'b'
tRp4193
(I1
(tg9
I00
S'\xb1\x95~@'
tbs(g219
g173
tp4194
g5
(g6
(I0
tS'b'
tRp4195
(I1
(tg9
I00
S'\xa5\x0c\x82\xc1'
tbs(g132
g55
tp4196
g5
(g6
(I0
tS'b'
tRp4197
(I1
(tg9
I00
S'\xf0\xf7\t\xc1'
tbs(g41
g95
tp4198
g5
(g6
(I0
tS'b'
tRp4199
(I1
(tg9
I00
S'ajY\xc0'
tbs(g166
g214
tp4200
g5
(g6
(I0
tS'b'
tRp4201
(I1
(tg9
I00
S'\r\x04\xa4?'
tbs(g81
g123
tp4202
g5
(g6
(I0
tS'b'
tRp4203
(I1
(tg9
I00
S'KWz\xbf'
tbs(g25
g129
tp4204
g5
(g6
(I0
tS'b'
tRp4205
(I1
(tg9
I00
S'\xeb\x98\x94='
tbs(g234
g173
tp4206
g5
(g6
(I0
tS'b'
tRp4207
(I1
(tg9
I00
S'\xf9f\x89\xc0'
tbs(g132
g37
tp4208
g5
(g6
(I0
tS'b'
tRp4209
(I1
(tg9
I00
S'}\rgA'
tbs(g132
g116
tp4210
g5
(g6
(I0
tS'b'
tRp4211
(I1
(tg9
I00
S'\xb8k\x1cA'
tbs(g44
g174
tp4212
g5
(g6
(I0
tS'b'
tRp4213
(I1
(tg9
I00
S'\x8c\xa6\xc5@'
tbs(g67
g45
tp4214
g5
(g6
(I0
tS'b'
tRp4215
(I1
(tg9
I00
S'!\xde\x19A'
tbs(g64
g45
tp4216
g5
(g6
(I0
tS'b'
tRp4217
(I1
(tg9
I00
S'\xff\x9b)\xbe'
tbs(g18
g10
tp4218
g5
(g6
(I0
tS'b'
tRp4219
(I1
(tg9
I00
S'\x869\x89A'
tbs(g185
g111
tp4220
g5
(g6
(I0
tS'b'
tRp4221
(I1
(tg9
I00
S'\xbe\xcf\xbb@'
tbs(g173
g45
tp4222
g5
(g6
(I0
tS'b'
tRp4223
(I1
(tg9
I00
S'\xb0\x96\x94@'
tbs(g3
g307
tp4224
g5
(g6
(I0
tS'b'
tRp4225
(I1
(tg9
I00
S'\x9b\xef?\xc0'
tbs(g185
g143
tp4226
g5
(g6
(I0
tS'b'
tRp4227
(I1
(tg9
I00
S'\x8aP\xed@'
tbs(g48
g71
tp4228
g5
(g6
(I0
tS'b'
tRp4229
(I1
(tg9
I00
S'\x03\x7f\x1b@'
tbs(g64
g70
tp4230
g5
(g6
(I0
tS'b'
tRp4231
(I1
(tg9
I00
S'z/\xf2\xbf'
tbs(g100
g19
tp4232
g5
(g6
(I0
tS'b'
tRp4233
(I1
(tg9
I00
S'\x9cE\x9f@'
tbs(g70
g100
tp4234
g5
(g6
(I0
tS'b'
tRp4235
(I1
(tg9
I00
S'\xd3\x14\x11\xc1'
tbs(g166
g111
tp4236
g5
(g6
(I0
tS'b'
tRp4237
(I1
(tg9
I00
S'\xa7\x05\x91?'
tbs(g359
g174
tp4238
g5
(g6
(I0
tS'b'
tRp4239
(I1
(tg9
I00
S'%X\xa6A'
tbs(g105
g33
tp4240
g5
(g6
(I0
tS'b'
tRp4241
(I1
(tg9
I00
S'\xf8\xe2\xe9@'
tbs(g74
g359
tp4242
g5
(g6
(I0
tS'b'
tRp4243
(I1
(tg9
I00
S'\x8d\x89\x89\xc1'
tbs(g105
g163
tp4244
g5
(g6
(I0
tS'b'
tRp4245
(I1
(tg9
I00
S'\xf5\xa1\x95\xbf'
tbs(g74
g71
tp4246
g5
(g6
(I0
tS'b'
tRp4247
(I1
(tg9
I00
S'"(\xb3\xbf'
tbs(g26
g34
tp4248
g5
(g6
(I0
tS'b'
tRp4249
(I1
(tg9
I00
S'E\x1b\xfa\xbd'
tbs(g194
g78
tp4250
g5
(g6
(I0
tS'b'
tRp4251
(I1
(tg9
I00
S'\xf4\x1c\x93\xc0'
tbs(g67
g111
tp4252
g5
(g6
(I0
tS'b'
tRp4253
(I1
(tg9
I00
S'tD\xed@'
tbs(g2
g296
tp4254
g5
(g6
(I0
tS'b'
tRp4255
(I1
(tg9
I00
S'\x04\xa3\x13\xc1'
tbs(g51
g116
tp4256
g5
(g6
(I0
tS'b'
tRp4257
(I1
(tg9
I00
S'PtuA'
tbs(g25
g22
tp4258
g5
(g6
(I0
tS'b'
tRp4259
(I1
(tg9
I00
S'\x83\xa2\xcb@'
tbs(g140
g70
tp4260
g5
(g6
(I0
tS'b'
tRp4261
(I1
(tg9
I00
S'!H\nA'
tbs(g110
g15
tp4262
g5
(g6
(I0
tS'b'
tRp4263
(I1
(tg9
I00
S'\x7f\xabs@'
tbs(g359
g26
tp4264
g5
(g6
(I0
tS'b'
tRp4265
(I1
(tg9
I00
S'J\xd2\x9f@'
tbs(g78
g10
tp4266
g5
(g6
(I0
tS'b'
tRp4267
(I1
(tg9
I00
S'\x93[*A'
tbs(g81
g197
tp4268
g5
(g6
(I0
tS'b'
tRp4269
(I1
(tg9
I00
S's\x16\x96\xc0'
tbs(g110
g100
tp4270
g5
(g6
(I0
tS'b'
tRp4271
(I1
(tg9
I00
S'\xa9v\x1a\xc0'
tbs(g219
g15
tp4272
g5
(g6
(I0
tS'b'
tRp4273
(I1
(tg9
I00
S'\xe3\xf5}\xc1'
tbs(g194
g81
tp4274
g5
(g6
(I0
tS'b'
tRp4275
(I1
(tg9
I00
S'\xc94>?'
tbs(g61
g143
tp4276
g5
(g6
(I0
tS'b'
tRp4277
(I1
(tg9
I00
S'\xb0~\x1d\xc1'
tbs(g180
g15
tp4278
g5
(g6
(I0
tS'b'
tRp4279
(I1
(tg9
I00
S'h\xc1\r\xc0'
tbs(g25
g197
tp4280
g5
(g6
(I0
tS'b'
tRp4281
(I1
(tg9
I00
S'\x9b=\xdb@'
tbs(g14
g91
tp4282
g5
(g6
(I0
tS'b'
tRp4283
(I1
(tg9
I00
S'\x97\x858@'
tbs(g52
g71
tp4284
g5
(g6
(I0
tS'b'
tRp4285
(I1
(tg9
I00
S'\xcbiw@'
tbs(g3
g45
tp4286
g5
(g6
(I0
tS'b'
tRp4287
(I1
(tg9
I00
S'\x7f\xafz@'
tbs(g18
g78
tp4288
g5
(g6
(I0
tS'b'
tRp4289
(I1
(tg9
I00
S'\xf5\x06\x97?'
tbs(g197
g82
tp4290
g5
(g6
(I0
tS'b'
tRp4291
(I1
(tg9
I00
S'\x86O\x93@'
tbs(g2
g19
tp4292
g5
(g6
(I0
tS'b'
tRp4293
(I1
(tg9
I00
S'\xc6\xfd\x1b\xc1'
tbs(g132
g91
tp4294
g5
(g6
(I0
tS'b'
tRp4295
(I1
(tg9
I00
S'l\xdb\xc2\xc0'
tbs(g3
g70
tp4296
g5
(g6
(I0
tS'b'
tRp4297
(I1
(tg9
I00
S'\xfb\xa8G@'
tbs(g359
g52
tp4298
g5
(g6
(I0
tS'b'
tRp4299
(I1
(tg9
I00
S'\x01\rqA'
tbs(g30
g116
tp4300
g5
(g6
(I0
tS'b'
tRp4301
(I1
(tg9
I00
S'\xa5\xbe\x89\xbf'
tbs(g152
g30
tp4302
g5
(g6
(I0
tS'b'
tRp4303
(I1
(tg9
I00
S'\xd3[\x0cA'
tbs(g296
g45
tp4304
g5
(g6
(I0
tS'b'
tRp4305
(I1
(tg9
I00
S'\x92\x03f\xc0'
tbs(g41
g174
tp4306
g5
(g6
(I0
tS'b'
tRp4307
(I1
(tg9
I00
S'\xdb\x96%@'
tbs(g29
g22
tp4308
g5
(g6
(I0
tS'b'
tRp4309
(I1
(tg9
I00
S'J\xfd\xa6@'
tbs(g180
g38
tp4310
g5
(g6
(I0
tS'b'
tRp4311
(I1
(tg9
I00
S'\xe6\xcd\x16@'
tbs(g29
g33
tp4312
g5
(g6
(I0
tS'b'
tRp4313
(I1
(tg9
I00
S'\x02\xa0AA'
tbs(g51
g25
tp4314
g5
(g6
(I0
tS'b'
tRp4315
(I1
(tg9
I00
S'\x06q\x88\xbf'
tbs(g3
g129
tp4316
g5
(g6
(I0
tS'b'
tRp4317
(I1
(tg9
I00
S'P6\x10\xc1'
tbs(g197
g332
tp4318
g5
(g6
(I0
tS'b'
tRp4319
(I1
(tg9
I00
S'\xc1NY@'
tbs(g214
g82
tp4320
g5
(g6
(I0
tS'b'
tRp4321
(I1
(tg9
I00
S'\xc0\xd4\x03A'
tbs(g185
g71
tp4322
g5
(g6
(I0
tS'b'
tRp4323
(I1
(tg9
I00
S'_"+A'
tbs(g2
g173
tp4324
g5
(g6
(I0
tS'b'
tRp4325
(I1
(tg9
I00
S'\xbf\xdcD\xc1'
tbs(g74
g174
tp4326
g5
(g6
(I0
tS'b'
tRp4327
(I1
(tg9
I00
S'\xa2p\xb1@'
tbs(g359
g55
tp4328
g5
(g6
(I0
tS'b'
tRp4329
(I1
(tg9
I00
S'\x045\x8d@'
tbs(g307
g34
tp4330
g5
(g6
(I0
tS'b'
tRp4331
(I1
(tg9
I00
S'?\x97\x03\xc1'
tbs(g194
g41
tp4332
g5
(g6
(I0
tS'b'
tRp4333
(I1
(tg9
I00
S'\x8d\x14\xec?'
tbs(g41
g173
tp4334
g5
(g6
(I0
tS'b'
tRp4335
(I1
(tg9
I00
S']S\x14\xc1'
tbs(g166
g332
tp4336
g5
(g6
(I0
tS'b'
tRp4337
(I1
(tg9
I00
S'\xdaJ\xec@'
tbs(g105
g174
tp4338
g5
(g6
(I0
tS'b'
tRp4339
(I1
(tg9
I00
S'(u;A'
tbs(g61
g116
tp4340
g5
(g6
(I0
tS'b'
tRp4341
(I1
(tg9
I00
S'\x8d\xe4A@'
tbs(g100
g45
tp4342
g5
(g6
(I0
tS'b'
tRp4343
(I1
(tg9
I00
S'\xda\xb0\rA'
tbs(g81
g44
tp4344
g5
(g6
(I0
tS'b'
tRp4345
(I1
(tg9
I00
S'\xce\x05\xaa\xbd'
tbs(g2
g126
tp4346
g5
(g6
(I0
tS'b'
tRp4347
(I1
(tg9
I00
S'3p\x00\xc1'
tbs(g116
g11
tp4348
g5
(g6
(I0
tS'b'
tRp4349
(I1
(tg9
I00
S'm\x18\x94\xc1'
tbs(g126
g45
tp4350
g5
(g6
(I0
tS'b'
tRp4351
(I1
(tg9
I00
S'\x9bYm@'
tbs(g219
g143
tp4352
g5
(g6
(I0
tS'b'
tRp4353
(I1
(tg9
I00
S'\x0f\xee\x91\xc1'
tbs(g126
g81
tp4354
g5
(g6
(I0
tS'b'
tRp4355
(I1
(tg9
I00
S'\xad\x01B?'
tbs(g37
g143
tp4356
g5
(g6
(I0
tS'b'
tRp4357
(I1
(tg9
I00
S'z|\x89\xc1'
tbs(g111
g45
tp4358
g5
(g6
(I0
tS'b'
tRp4359
(I1
(tg9
I00
S'c\x84\xc5@'
tbs(g61
g52
tp4360
g5
(g6
(I0
tS'b'
tRp4361
(I1
(tg9
I00
S'W\x01\xe5?'
tbs(g95
g34
tp4362
g5
(g6
(I0
tS'b'
tRp4363
(I1
(tg9
I00
S'\xa1\x17z\xc1'
tbs(g110
g219
tp4364
g5
(g6
(I0
tS'b'
tRp4365
(I1
(tg9
I00
S'?\x0fIA'
tbs(g81
g56
tp4366
g5
(g6
(I0
tS'b'
tRp4367
(I1
(tg9
I00
S'\xcc\xd2)\xc1'
tbs(g44
g19
tp4368
g5
(g6
(I0
tS'b'
tRp4369
(I1
(tg9
I00
S'\x15\n\x0e@'
tbs(g177
g111
tp4370
g5
(g6
(I0
tS'b'
tRp4371
(I1
(tg9
I00
S'\xed\xd4X@'
tbs(g67
g55
tp4372
g5
(g6
(I0
tS'b'
tRp4373
(I1
(tg9
I00
S'mF\x07\xc0'
tbs(g41
g163
tp4374
g5
(g6
(I0
tS'b'
tRp4375
(I1
(tg9
I00
S'v\x9fo\xc1'
tbs(g110
g10
tp4376
g5
(g6
(I0
tS'b'
tRp4377
(I1
(tg9
I00
S'\xa5\x19kA'
tbs(g105
g19
tp4378
g5
(g6
(I0
tS'b'
tRp4379
(I1
(tg9
I00
S'\x8e\xae\xa3@'
tbs(g25
g75
tp4380
g5
(g6
(I0
tS'b'
tRp4381
(I1
(tg9
I00
S'\xcb\x9a\x08\xc0'
tbs(g129
g26
tp4382
g5
(g6
(I0
tS'b'
tRp4383
(I1
(tg9
I00
S'\xcck\xd7\xc0'
tbs(g41
g82
tp4384
g5
(g6
(I0
tS'b'
tRp4385
(I1
(tg9
I00
S'\xbf\xebQ\xc0'
tbs(g33
g111
tp4386
g5
(g6
(I0
tS'b'
tRp4387
(I1
(tg9
I00
S'\x90\x92\x9b\xc0'
tbs(g22
g296
tp4388
g5
(g6
(I0
tS'b'
tRp4389
(I1
(tg9
I00
S'_\xfe)@'
tbs(g135
g143
tp4390
g5
(g6
(I0
tS'b'
tRp4391
(I1
(tg9
I00
S'\x8b\xb2-@'
tbs(g140
g2
tp4392
g5
(g6
(I0
tS'b'
tRp4393
(I1
(tg9
I00
S'\xc5\x08YA'
tbs(g94
g34
tp4394
g5
(g6
(I0
tS'b'
tRp4395
(I1
(tg9
I00
S'\x86\x91G\xc1'
tbs(g126
g307
tp4396
g5
(g6
(I0
tS'b'
tRp4397
(I1
(tg9
I00
S'\xbe\xf7\xbc\xc0'
tbs(g3
g95
tp4398
g5
(g6
(I0
tS'b'
tRp4399
(I1
(tg9
I00
S'\xaf\xc0\xaf@'
tbs(g75
g41
tp4400
g5
(g6
(I0
tS'b'
tRp4401
(I1
(tg9
I00
S'\xadn\x91A'
tbs(g74
g55
tp4402
g5
(g6
(I0
tS'b'
tRp4403
(I1
(tg9
I00
S'\x12\x07\x87\xc1'
tbs(g19
g91
tp4404
g5
(g6
(I0
tS'b'
tRp4405
(I1
(tg9
I00
S'\xca\x86\x17\xc1'
tbs(g48
g91
tp4406
g5
(g6
(I0
tS'b'
tRp4407
(I1
(tg9
I00
S'\xa7\xa6K\xc1'
tbs(g51
g34
tp4408
g5
(g6
(I0
tS'b'
tRp4409
(I1
(tg9
I00
S'>#\x92\xc0'
tbs(g74
g163
tp4410
g5
(g6
(I0
tS'b'
tRp4411
(I1
(tg9
I00
S'p2\x17\xc1'
tbs(g185
g163
tp4412
g5
(g6
(I0
tS'b'
tRp4413
(I1
(tg9
I00
S'\x00\x8a\xd8@'
tbs(g51
g140
tp4414
g5
(g6
(I0
tS'b'
tRp4415
(I1
(tg9
I00
S'r.\xb7@'
tbs(g296
g111
tp4416
g5
(g6
(I0
tS'b'
tRp4417
(I1
(tg9
I00
S'\xa9\xc4\xa6\xc0'
tbs(g296
g91
tp4418
g5
(g6
(I0
tS'b'
tRp4419
(I1
(tg9
I00
S'?*0\xc1'
tbs(g126
g163
tp4420
g5
(g6
(I0
tS'b'
tRp4421
(I1
(tg9
I00
S'\xa8\x1fN\xc1'
tbs(g78
g45
tp4422
g5
(g6
(I0
tS'b'
tRp4423
(I1
(tg9
I00
S'\x8c\x9f\x95@'
tbs(g132
g81
tp4424
g5
(g6
(I0
tS'b'
tRp4425
(I1
(tg9
I00
S'\xb4\x96\x1dA'
tbs(g126
g26
tp4426
g5
(g6
(I0
tS'b'
tRp4427
(I1
(tg9
I00
S'\xd3\xaaE\xc1'
tbs(g95
g111
tp4428
g5
(g6
(I0
tS'b'
tRp4429
(I1
(tg9
I00
S'\xb7\xd5\xb7\xc0'
tbs(g91
g307
tp4430
g5
(g6
(I0
tS'b'
tRp4431
(I1
(tg9
I00
S'\x8b\x15h@'
tbs(g67
g37
tp4432
g5
(g6
(I0
tS'b'
tRp4433
(I1
(tg9
I00
S'f|\x99A'
tbs(g14
g214
tp4434
g5
(g6
(I0
tS'b'
tRp4435
(I1
(tg9
I00
S'k\x10\x9d@'
tbs(g132
g71
tp4436
g5
(g6
(I0
tS'b'
tRp4437
(I1
(tg9
I00
S'\xba\x9c\xa1@'
tbs(g95
g173
tp4438
g5
(g6
(I0
tS'b'
tRp4439
(I1
(tg9
I00
S'y\x8a\xc8\xc0'
tbs(g110
g41
tp4440
g5
(g6
(I0
tS'b'
tRp4441
(I1
(tg9
I00
S"\x1f+'A"
tbs(g129
g10
tp4442
g5
(g6
(I0
tS'b'
tRp4443
(I1
(tg9
I00
S'Q|VA'
tbs(g67
g11
tp4444
g5
(g6
(I0
tS'b'
tRp4445
(I1
(tg9
I00
S'\x15 Z\xc0'
tbs(g64
g174
tp4446
g5
(g6
(I0
tS'b'
tRp4447
(I1
(tg9
I00
S'\xe6\xfa\xbc@'
tbs(g296
g123
tp4448
g5
(g6
(I0
tS'b'
tRp4449
(I1
(tg9
I00
S'\xd4}u\xc0'
tbs(g75
g166
tp4450
g5
(g6
(I0
tS'b'
tRp4451
(I1
(tg9
I00
S'\xd2\x06\xa3@'
tbs(g180
g116
tp4452
g5
(g6
(I0
tS'b'
tRp4453
(I1
(tg9
I00
S'\x86\xcd\xea@'
tbs(g18
g359
tp4454
g5
(g6
(I0
tS'b'
tRp4455
(I1
(tg9
I00
S'\xbbs\x05\xc1'
tbs(g91
g111
tp4456
g5
(g6
(I0
tS'b'
tRp4457
(I1
(tg9
I00
S'\xf1\x88i@'
tbs(g166
g296
tp4458
g5
(g6
(I0
tS'b'
tRp4459
(I1
(tg9
I00
S'\xe0\xa8\xeb@'
tbs(g129
g143
tp4460
g5
(g6
(I0
tS'b'
tRp4461
(I1
(tg9
I00
S'LV\x10\xbf'
tbs(g180
g10
tp4462
g5
(g6
(I0
tS'b'
tRp4463
(I1
(tg9
I00
S'\xa2\x17-A'
tbs(g81
g34
tp4464
g5
(g6
(I0
tS'b'
tRp4465
(I1
(tg9
I00
S'(fI\xc1'
tbs(g51
g18
tp4466
g5
(g6
(I0
tS'b'
tRp4467
(I1
(tg9
I00
S'\x84l\xee@'
tbs(g61
g173
tp4468
g5
(g6
(I0
tS'b'
tRp4469
(I1
(tg9
I00
S'\xc0\xb7\xb3\xc0'
tbs(g67
g94
tp4470
g5
(g6
(I0
tS'b'
tRp4471
(I1
(tg9
I00
S'7\xc0-A'
tbs(g55
g163
tp4472
g5
(g6
(I0
tS'b'
tRp4473
(I1
(tg9
I00
S'<k\x81@'
tbs(g110
g174
tp4474
g5
(g6
(I0
tS'b'
tRp4475
(I1
(tg9
I00
S'\xc8+WA'
tbs(g180
g71
tp4476
g5
(g6
(I0
tS'b'
tRp4477
(I1
(tg9
I00
S'\xd2#\xb6@'
tbs(g18
g82
tp4478
g5
(g6
(I0
tS'b'
tRp4479
(I1
(tg9
I00
S'\xcd@<A'
tbs(g51
g214
tp4480
g5
(g6
(I0
tS'b'
tRp4481
(I1
(tg9
I00
S'\x06*\xf4@'
tbs(g64
g173
tp4482
g5
(g6
(I0
tS'b'
tRp4483
(I1
(tg9
I00
S'8\xf6\xc8\xc0'
tbs(g37
g116
tp4484
g5
(g6
(I0
tS'b'
tRp4485
(I1
(tg9
I00
S'\xa5]\xd7\xc0'
tbs(g44
g34
tp4486
g5
(g6
(I0
tS'b'
tRp4487
(I1
(tg9
I00
S't\x8c_\xc1'
tbs(g18
g56
tp4488
g5
(g6
(I0
tS'b'
tRp4489
(I1
(tg9
I00
S'\xff\xd64?'
tbs(g3
g41
tp4490
g5
(g6
(I0
tS'b'
tRp4491
(I1
(tg9
I00
S'\xea\xd6\xf9@'
tbs(g194
g135
tp4492
g5
(g6
(I0
tS'b'
tRp4493
(I1
(tg9
I00
S'\xd0V\x17\xc1'
tbs(g75
g78
tp4494
g5
(g6
(I0
tS'b'
tRp4495
(I1
(tg9
I00
S'\x98\x95\x81@'
tbs(g234
g70
tp4496
g5
(g6
(I0
tS'b'
tRp4497
(I1
(tg9
I00
S'\xb1\xc8\xaa?'
tbs(g135
g296
tp4498
g5
(g6
(I0
tS'b'
tRp4499
(I1
(tg9
I00
S'B\xfd\rA'
tbs(g234
g166
tp4500
g5
(g6
(I0
tS'b'
tRp4501
(I1
(tg9
I00
S'\xbb\xea\x07\xc1'
tbs(g18
g26
tp4502
g5
(g6
(I0
tS'b'
tRp4503
(I1
(tg9
I00
S'N\x0c\x96\xc0'
tbs(g359
g123
tp4504
g5
(g6
(I0
tS'b'
tRp4505
(I1
(tg9
I00
S'\xa5\xf0~A'
tbs(g15
g34
tp4506
g5
(g6
(I0
tS'b'
tRp4507
(I1
(tg9
I00
S'\x99`g\xc1'
tbs(g67
g44
tp4508
g5
(g6
(I0
tS'b'
tRp4509
(I1
(tg9
I00
S'\xfb\xf7ZA'
tbs(g61
g140
tp4510
g5
(g6
(I0
tS'b'
tRp4511
(I1
(tg9
I00
S')\x91,\xc1'
tbs(g34
g174
tp4512
g5
(g6
(I0
tS'b'
tRp4513
(I1
(tg9
I00
S'\xcf\xa4~A'
tbs(g2
g180
tp4514
g5
(g6
(I0
tS'b'
tRp4515
(I1
(tg9
I00
S'\xef\xd4\x13\xc1'
tbs(g91
g82
tp4516
g5
(g6
(I0
tS'b'
tRp4517
(I1
(tg9
I00
S'\x8bK\x0fA'
tbs(g143
g70
tp4518
g5
(g6
(I0
tS'b'
tRp4519
(I1
(tg9
I00
S'2\x97\xab@'
tbs(g30
g19
tp4520
g5
(g6
(I0
tS'b'
tRp4521
(I1
(tg9
I00
S'Tn\xb0\xc0'
tbs(g55
g95
tp4522
g5
(g6
(I0
tS'b'
tRp4523
(I1
(tg9
I00
S'\x8a@\x9cA'
tbs(g177
g132
tp4524
g5
(g6
(I0
tS'b'
tRp4525
(I1
(tg9
I00
S'\x99k3@'
tbs(g105
g44
tp4526
g5
(g6
(I0
tS'b'
tRp4527
(I1
(tg9
I00
S'\xf0\xd0\xe3@'
tbs(g2
g74
tp4528
g5
(g6
(I0
tS'b'
tRp4529
(I1
(tg9
I00
S'\xc6\x99\x08\xc1'
tbs(g25
g116
tp4530
g5
(g6
(I0
tS'b'
tRp4531
(I1
(tg9
I00
S'\xdd\xa7LA'
tbs(g33
g26
tp4532
g5
(g6
(I0
tS'b'
tRp4533
(I1
(tg9
I00
S'@]&\xc1'
tbs(g18
g91
tp4534
g5
(g6
(I0
tS'b'
tRp4535
(I1
(tg9
I00
S'\xc2\xd9%@'
tbs(g197
g3
tp4536
g5
(g6
(I0
tS'b'
tRp4537
(I1
(tg9
I00
S'\xd8k,@'
tbs(g25
g123
tp4538
g5
(g6
(I0
tS'b'
tRp4539
(I1
(tg9
I00
S'\x0e$\xe1@'
tbs(g143
g33
tp4540
g5
(g6
(I0
tS'b'
tRp4541
(I1
(tg9
I00
S'\xbf\xcd\x03A'
tbs(g105
g152
tp4542
g5
(g6
(I0
tS'b'
tRp4543
(I1
(tg9
I00
S'\x93\x0b\\@'
tbs(g143
g111
tp4544
g5
(g6
(I0
tS'b'
tRp4545
(I1
(tg9
I00
S'\xdb\xc2\xb7@'
tbs(g78
g19
tp4546
g5
(g6
(I0
tS'b'
tRp4547
(I1
(tg9
I00
S'y\xb1\xb6?'
tbs(g29
g91
tp4548
g5
(g6
(I0
tS'b'
tRp4549
(I1
(tg9
I00
S'\x1b\xc2\xfd?'
tbs(g261
g61
tp4550
g5
(g6
(I0
tS'b'
tRp4551
(I1
(tg9
I00
S'(=\xbd@'
tbs(g61
g15
tp4552
g5
(g6
(I0
tS'b'
tRp4553
(I1
(tg9
I00
S'M\x80\xcf\xc0'
tbs(g194
g14
tp4554
g5
(g6
(I0
tS'b'
tRp4555
(I1
(tg9
I00
S'\xf6\xd3\x07\xc1'
tbs(g30
g123
tp4556
g5
(g6
(I0
tS'b'
tRp4557
(I1
(tg9
I00
S'\xc0\xbb\x1f\xc1'
tbs(g41
g185
tp4558
g5
(g6
(I0
tS'b'
tRp4559
(I1
(tg9
I00
S'TEU\xc1'
tbs(g135
g48
tp4560
g5
(g6
(I0
tS'b'
tRp4561
(I1
(tg9
I00
S'8X\xfd@'
tbs(g261
g56
tp4562
g5
(g6
(I0
tS'b'
tRp4563
(I1
(tg9
I00
S')iC\xc0'
tbs(g132
g22
tp4564
g5
(g6
(I0
tS'b'
tRp4565
(I1
(tg9
I00
S'p\x0c\xa0?'
tbs(g261
g30
tp4566
g5
(g6
(I0
tS'b'
tRp4567
(I1
(tg9
I00
S'\x83\x8d+A'
tbs(g140
g214
tp4568
g5
(g6
(I0
tS'b'
tRp4569
(I1
(tg9
I00
S' \xf7\x91@'
tbs(g64
g111
tp4570
g5
(g6
(I0
tS'b'
tRp4571
(I1
(tg9
I00
S'\xf7j\n\xc1'
tbs(g25
g10
tp4572
g5
(g6
(I0
tS'b'
tRp4573
(I1
(tg9
I00
S'\x98wqA'
tbs(g70
g332
tp4574
g5
(g6
(I0
tS'b'
tRp4575
(I1
(tg9
I00
S'\x8c\xa2\x00@'
tbs(g2
g214
tp4576
g5
(g6
(I0
tS'b'
tRp4577
(I1
(tg9
I00
S'\x066\x0b\xc1'
tbs(g94
g30
tp4578
g5
(g6
(I0
tS'b'
tRp4579
(I1
(tg9
I00
S' \xbc\xd8@'
tbs(g261
g82
tp4580
g5
(g6
(I0
tS'b'
tRp4581
(I1
(tg9
I00
S')\t\xc4@'
tbs(g94
g135
tp4582
g5
(g6
(I0
tS'b'
tRp4583
(I1
(tg9
I00
S'\xcc\xf5\xb4\xc0'
tbs(g22
g100
tp4584
g5
(g6
(I0
tS'b'
tRp4585
(I1
(tg9
I00
S'\xb3H\x02\xc0'
tbs(g18
g180
tp4586
g5
(g6
(I0
tS'b'
tRp4587
(I1
(tg9
I00
S'f\xe1\xd8@'
tbs(g38
g307
tp4588
g5
(g6
(I0
tS'b'
tRp4589
(I1
(tg9
I00
S'/O\x87\xbf'
tbs(g41
g64
tp4590
g5
(g6
(I0
tS'b'
tRp4591
(I1
(tg9
I00
S"Z\x19'\xc1"
tbs(g64
g100
tp4592
g5
(g6
(I0
tS'b'
tRp4593
(I1
(tg9
I00
S'\x15\x14*\xc1'
tbs(g38
g52
tp4594
g5
(g6
(I0
tS'b'
tRp4595
(I1
(tg9
I00
S'\xc0\xfa\x96@'
tbs(g18
g70
tp4596
g5
(g6
(I0
tS'b'
tRp4597
(I1
(tg9
I00
S'\xb8\xb6\xdd@'
tbs(g2
g105
tp4598
g5
(g6
(I0
tS'b'
tRp4599
(I1
(tg9
I00
S'\xbe\xec\t\xc1'
tbs(g197
g123
tp4600
g5
(g6
(I0
tS'b'
tRp4601
(I1
(tg9
I00
S'\xf7\xcc\xd4?'
tbs(g95
g45
tp4602
g5
(g6
(I0
tS'b'
tRp4603
(I1
(tg9
I00
S'\xfa\xe8\xca?'
tbs(g197
g70
tp4604
g5
(g6
(I0
tS'b'
tRp4605
(I1
(tg9
I00
S'4\xe60@'
tbs(g18
g116
tp4606
g5
(g6
(I0
tS'b'
tRp4607
(I1
(tg9
I00
S'{\x17NA'
tbs(g51
g41
tp4608
g5
(g6
(I0
tS'b'
tRp4609
(I1
(tg9
I00
S'\xb3Y\x83A'
tbs(g143
g26
tp4610
g5
(g6
(I0
tS'b'
tRp4611
(I1
(tg9
I00
S'\xadY\xb1\xc0'
tbs(g51
g332
tp4612
g5
(g6
(I0
tS'b'
tRp4613
(I1
(tg9
I00
S'\xb7=~A'
tbs(g261
g100
tp4614
g5
(g6
(I0
tS'b'
tRp4615
(I1
(tg9
I00
S'\xee\xd5\xb4\xc0'
tbs(g152
g55
tp4616
g5
(g6
(I0
tS'b'
tRp4617
(I1
(tg9
I00
S'\x15\x97 \xc1'
tbs(g194
g71
tp4618
g5
(g6
(I0
tS'b'
tRp4619
(I1
(tg9
I00
S'\x9fI\n\xc0'
tbs(g180
g219
tp4620
g5
(g6
(I0
tS'b'
tRp4621
(I1
(tg9
I00
S'\xa7\x00QA'
tbs(g177
g307
tp4622
g5
(g6
(I0
tS'b'
tRp4623
(I1
(tg9
I00
S'5s\x01\xc0'
tbs(g94
g41
tp4624
g5
(g6
(I0
tS'b'
tRp4625
(I1
(tg9
I00
S'\xaa\x04\xda@'
tbs(g307
g332
tp4626
g5
(g6
(I0
tS'b'
tRp4627
(I1
(tg9
I00
S'\xd2\x0e\xb9@'
tbs(g26
g123
tp4628
g5
(g6
(I0
tS'b'
tRp4629
(I1
(tg9
I00
S'\x84\xb9\x1dA'
tbs.